; ModuleID = 'C:/Users/Peachy/Desktop/SeniorProj/PyramidCon_x/solution2/.autopilot/db/a.o.3.bc'
target datalayout = "e-p:64:64:64-i1:8:8-i8:8:8-i16:16:16-i32:32:32-i64:64:64-f32:32:32-f64:64:64-v64:64:64-v128:128:128-a0:0:64-s0:64:64-f80:128:128-n8:16:32:64-S128"
target triple = "x86_64-w64-mingw32"

@pyrconstuct_top_str = internal unnamed_addr constant [16 x i8] c"pyrconstuct_top\00" ; [#uses=1 type=[16 x i8]*]
@llvm_global_ctors_1 = appending global [1 x void ()*] [void ()* @_GLOBAL__I_a] ; [#uses=0 type=[1 x void ()*]*]
@llvm_global_ctors_0 = appending global [1 x i32] [i32 65535] ; [#uses=0 type=[1 x i32]*]
@limits = internal unnamed_addr constant [12 x i10] [i10 -512, i10 -512, i10 256, i10 256, i10 128, i10 128, i10 64, i10 64, i10 32, i10 32, i10 16, i10 16] ; [#uses=1 type=[12 x i10]*]
@imgOutTmpFFTStream_OC_channel_s = internal unnamed_addr constant [27 x i8] c"imgOutTmpFFTStream.channel\00" ; [#uses=1 type=[27 x i8]*]
@imgInTmp_OC_channel_str = internal unnamed_addr constant [17 x i8] c"imgInTmp.channel\00" ; [#uses=1 type=[17 x i8]*]
@imgInTmp2_OC_channel_str = internal unnamed_addr constant [18 x i8] c"imgInTmp2.channel\00" ; [#uses=1 type=[18 x i8]*]
@ifftPyrOut_OC_channel_str = internal unnamed_addr constant [19 x i8] c"ifftPyrOut.channel\00" ; [#uses=1 type=[19 x i8]*]
@fft_config_OC_data_OC_V_OC_cha = internal unnamed_addr constant [26 x i8] c"fft_config.data.V.channel\00" ; [#uses=1 type=[26 x i8]*]
@fft_config2_OC_data_OC_V_OC_ch = internal unnamed_addr constant [27 x i8] c"fft_config2.data.V.channel\00" ; [#uses=1 type=[27 x i8]*]
@fftPyrOut_OC_M_real_OC_V_OC_c = internal unnamed_addr constant [28 x i8] c"fftPyrOut._M_real.V.channel\00" ; [#uses=1 type=[28 x i8]*]
@fftPyrOut_OC_M_real_OC_V_str = internal unnamed_addr constant [20 x i8] c"fftPyrOut._M_real.V\00" ; [#uses=1 type=[20 x i8]*]
@fftPyrOut_OC_M_imag_OC_V_OC_c = internal unnamed_addr constant [28 x i8] c"fftPyrOut._M_imag.V.channel\00" ; [#uses=1 type=[28 x i8]*]
@fftPyrOut_OC_M_imag_OC_V_str = internal unnamed_addr constant [20 x i8] c"fftPyrOut._M_imag.V\00" ; [#uses=1 type=[20 x i8]*]
@consFilters_V = internal unnamed_addr constant [1520 x i9] [i9 0, i9 0, i9 0, i9 0, i9 0, i9 0, i9 0, i9 0, i9 0, i9 0, i9 0, i9 0, i9 0, i9 0, i9 0, i9 0, i9 0, i9 0, i9 0, i9 0, i9 0, i9 0, i9 0, i9 0, i9 0, i9 0, i9 0, i9 0, i9 0, i9 0, i9 0, i9 0, i9 0, i9 0, i9 0, i9 0, i9 0, i9 0, i9 0, i9 0, i9 0, i9 0, i9 0, i9 0, i9 0, i9 0, i9 0, i9 0, i9 0, i9 0, i9 0, i9 0, i9 0, i9 0, i9 0, i9 0, i9 0, i9 0, i9 0, i9 0, i9 0, i9 0, i9 0, i9 0, i9 0, i9 0, i9 0, i9 0, i9 0, i9 0, i9 0, i9 0, i9 0, i9 0, i9 0, i9 0, i9 0, i9 0, i9 0, i9 0, i9 0, i9 0, i9 0, i9 0, i9 0, i9 0, i9 0, i9 0, i9 0, i9 0, i9 0, i9 0, i9 0, i9 0, i9 0, i9 0, i9 0, i9 0, i9 0, i9 0, i9 0, i9 0, i9 0, i9 0, i9 0, i9 0, i9 0, i9 0, i9 0, i9 0, i9 0, i9 0, i9 0, i9 0, i9 0, i9 0, i9 0, i9 0, i9 0, i9 0, i9 0, i9 0, i9 0, i9 0, i9 0, i9 0, i9 0, i9 0, i9 0, i9 4, i9 8, i9 13, i9 17, i9 22, i9 26, i9 30, i9 35, i9 39, i9 43, i9 47, i9 51, i9 55, i9 59, i9 63, i9 67, i9 71, i9 75, i9 78, i9 82, i9 86, i9 90, i9 93, i9 97, i9 100, i9 104, i9 107, i9 110, i9 114, i9 117, i9 120, i9 124, i9 127, i9 130, i9 133, i9 136, i9 139, i9 142, i9 145, i9 147, i9 150, i9 153, i9 156, i9 158, i9 161, i9 164, i9 166, i9 169, i9 171, i9 173, i9 176, i9 178, i9 180, i9 183, i9 185, i9 187, i9 189, i9 191, i9 193, i9 195, i9 197, i9 199, i9 201, i9 203, i9 205, i9 207, i9 208, i9 210, i9 212, i9 213, i9 215, i9 216, i9 218, i9 219, i9 221, i9 222, i9 224, i9 225, i9 226, i9 228, i9 229, i9 230, i9 231, i9 232, i9 234, i9 235, i9 236, i9 237, i9 238, i9 239, i9 240, i9 241, i9 241, i9 242, i9 243, i9 244, i9 245, i9 245, i9 246, i9 247, i9 247, i9 248, i9 249, i9 249, i9 250, i9 250, i9 251, i9 251, i9 252, i9 252, i9 252, i9 253, i9 253, i9 253, i9 254, i9 254, i9 254, i9 254, i9 255, i9 255, i9 255, i9 255, i9 255, i9 255, i9 255, i9 255, i9 255, i9 0, i9 0, i9 0, i9 0, i9 0, i9 0, i9 0, i9 0, i9 0, i9 0, i9 0, i9 0, i9 0, i9 0, i9 0, i9 0, i9 0, i9 0, i9 0, i9 0, i9 0, i9 0, i9 0, i9 0, i9 0, i9 0, i9 0, i9 0, i9 0, i9 0, i9 0, i9 0, i9 0, i9 0, i9 0, i9 0, i9 0, i9 0, i9 0, i9 0, i9 0, i9 0, i9 0, i9 0, i9 0, i9 0, i9 0, i9 0, i9 0, i9 0, i9 0, i9 0, i9 0, i9 0, i9 0, i9 0, i9 0, i9 0, i9 0, i9 0, i9 0, i9 0, i9 0, i9 0, i9 0, i9 0, i9 0, i9 0, i9 0, i9 0, i9 0, i9 0, i9 0, i9 0, i9 0, i9 0, i9 0, i9 0, i9 0, i9 0, i9 0, i9 0, i9 0, i9 0, i9 0, i9 0, i9 0, i9 0, i9 0, i9 0, i9 0, i9 0, i9 0, i9 0, i9 0, i9 0, i9 0, i9 0, i9 0, i9 0, i9 0, i9 0, i9 0, i9 0, i9 0, i9 0, i9 0, i9 0, i9 0, i9 0, i9 0, i9 0, i9 0, i9 0, i9 0, i9 0, i9 0, i9 0, i9 0, i9 0, i9 0, i9 0, i9 0, i9 0, i9 0, i9 0, i9 0, i9 0, i9 0, i9 0, i9 0, i9 0, i9 0, i9 0, i9 0, i9 0, i9 0, i9 0, i9 0, i9 0, i9 0, i9 0, i9 0, i9 0, i9 0, i9 0, i9 0, i9 0, i9 0, i9 0, i9 0, i9 0, i9 0, i9 0, i9 0, i9 0, i9 0, i9 0, i9 0, i9 0, i9 0, i9 0, i9 0, i9 0, i9 0, i9 0, i9 0, i9 0, i9 0, i9 0, i9 0, i9 0, i9 0, i9 0, i9 0, i9 0, i9 0, i9 0, i9 0, i9 0, i9 0, i9 0, i9 0, i9 0, i9 0, i9 0, i9 0, i9 0, i9 0, i9 0, i9 0, i9 0, i9 0, i9 0, i9 0, i9 0, i9 0, i9 0, i9 0, i9 0, i9 0, i9 0, i9 0, i9 0, i9 0, i9 0, i9 0, i9 0, i9 0, i9 0, i9 0, i9 0, i9 0, i9 0, i9 0, i9 0, i9 0, i9 0, i9 0, i9 0, i9 0, i9 0, i9 0, i9 0, i9 0, i9 0, i9 0, i9 0, i9 0, i9 0, i9 0, i9 0, i9 0, i9 0, i9 0, i9 0, i9 0, i9 0, i9 0, i9 0, i9 0, i9 0, i9 0, i9 0, i9 0, i9 0, i9 0, i9 0, i9 0, i9 0, i9 0, i9 0, i9 0, i9 0, i9 0, i9 0, i9 0, i9 0, i9 0, i9 0, i9 0, i9 0, i9 0, i9 0, i9 0, i9 0, i9 0, i9 0, i9 0, i9 0, i9 0, i9 0, i9 0, i9 0, i9 0, i9 0, i9 0, i9 0, i9 0, i9 0, i9 0, i9 0, i9 0, i9 0, i9 0, i9 0, i9 0, i9 0, i9 0, i9 0, i9 0, i9 0, i9 0, i9 0, i9 0, i9 0, i9 0, i9 0, i9 0, i9 0, i9 0, i9 0, i9 0, i9 0, i9 0, i9 0, i9 0, i9 0, i9 0, i9 0, i9 0, i9 0, i9 0, i9 0, i9 0, i9 0, i9 0, i9 0, i9 0, i9 0, i9 0, i9 8, i9 17, i9 26, i9 35, i9 43, i9 51, i9 59, i9 67, i9 75, i9 82, i9 90, i9 97, i9 104, i9 110, i9 117, i9 124, i9 130, i9 136, i9 142, i9 147, i9 153, i9 158, i9 164, i9 169, i9 173, i9 178, i9 183, i9 187, i9 191, i9 195, i9 199, i9 203, i9 207, i9 210, i9 213, i9 216, i9 219, i9 222, i9 225, i9 228, i9 230, i9 232, i9 235, i9 237, i9 239, i9 241, i9 242, i9 244, i9 245, i9 247, i9 248, i9 249, i9 250, i9 251, i9 252, i9 253, i9 253, i9 254, i9 254, i9 255, i9 255, i9 255, i9 255, i9 -256, i9 255, i9 255, i9 255, i9 255, i9 255, i9 254, i9 254, i9 253, i9 252, i9 252, i9 251, i9 250, i9 249, i9 248, i9 247, i9 246, i9 245, i9 244, i9 243, i9 242, i9 240, i9 239, i9 238, i9 236, i9 235, i9 233, i9 232, i9 230, i9 229, i9 227, i9 225, i9 223, i9 222, i9 220, i9 218, i9 216, i9 214, i9 212, i9 210, i9 208, i9 206, i9 204, i9 202, i9 200, i9 198, i9 196, i9 194, i9 192, i9 189, i9 187, i9 185, i9 183, i9 181, i9 178, i9 176, i9 174, i9 171, i9 169, i9 167, i9 164, i9 162, i9 160, i9 157, i9 155, i9 152, i9 150, i9 148, i9 145, i9 143, i9 140, i9 138, i9 135, i9 133, i9 130, i9 128, i9 125, i9 123, i9 121, i9 118, i9 116, i9 113, i9 111, i9 108, i9 106, i9 103, i9 101, i9 98, i9 96, i9 93, i9 91, i9 88, i9 86, i9 83, i9 81, i9 78, i9 76, i9 73, i9 71, i9 68, i9 66, i9 63, i9 61, i9 59, i9 56, i9 54, i9 51, i9 49, i9 46, i9 44, i9 42, i9 39, i9 37, i9 34, i9 32, i9 30, i9 27, i9 25, i9 23, i9 20, i9 18, i9 16, i9 13, i9 11, i9 9, i9 6, i9 4, i9 2, i9 0, i9 0, i9 0, i9 0, i9 0, i9 0, i9 0, i9 0, i9 0, i9 0, i9 0, i9 0, i9 0, i9 0, i9 0, i9 0, i9 0, i9 0, i9 0, i9 0, i9 0, i9 0, i9 0, i9 0, i9 0, i9 0, i9 0, i9 0, i9 0, i9 0, i9 0, i9 0, i9 0, i9 0, i9 0, i9 0, i9 0, i9 0, i9 0, i9 0, i9 0, i9 0, i9 0, i9 0, i9 0, i9 0, i9 0, i9 0, i9 0, i9 0, i9 0, i9 0, i9 0, i9 0, i9 0, i9 0, i9 0, i9 0, i9 0, i9 0, i9 0, i9 0, i9 0, i9 0, i9 0, i9 0, i9 0, i9 0, i9 0, i9 0, i9 0, i9 0, i9 0, i9 0, i9 0, i9 0, i9 0, i9 0, i9 0, i9 0, i9 0, i9 0, i9 0, i9 0, i9 0, i9 0, i9 0, i9 0, i9 0, i9 0, i9 0, i9 0, i9 0, i9 0, i9 0, i9 0, i9 0, i9 0, i9 0, i9 0, i9 0, i9 0, i9 0, i9 0, i9 0, i9 0, i9 0, i9 0, i9 0, i9 0, i9 0, i9 0, i9 0, i9 0, i9 0, i9 0, i9 0, i9 0, i9 0, i9 0, i9 0, i9 0, i9 0, i9 0, i9 0, i9 0, i9 0, i9 0, i9 0, i9 0, i9 0, i9 0, i9 0, i9 0, i9 0, i9 0, i9 0, i9 0, i9 0, i9 0, i9 0, i9 0, i9 0, i9 0, i9 0, i9 0, i9 0, i9 0, i9 0, i9 0, i9 0, i9 0, i9 0, i9 0, i9 0, i9 0, i9 0, i9 0, i9 0, i9 0, i9 0, i9 0, i9 0, i9 0, i9 0, i9 0, i9 0, i9 0, i9 0, i9 0, i9 0, i9 0, i9 0, i9 0, i9 0, i9 0, i9 0, i9 0, i9 0, i9 0, i9 0, i9 0, i9 0, i9 0, i9 0, i9 0, i9 0, i9 0, i9 0, i9 0, i9 0, i9 0, i9 0, i9 0, i9 0, i9 0, i9 0, i9 0, i9 0, i9 0, i9 0, i9 0, i9 0, i9 0, i9 0, i9 0, i9 0, i9 0, i9 0, i9 0, i9 0, i9 0, i9 0, i9 0, i9 0, i9 0, i9 0, i9 0, i9 0, i9 0, i9 0, i9 0, i9 0, i9 0, i9 0, i9 0, i9 0, i9 0, i9 0, i9 0, i9 0, i9 0, i9 0, i9 0, i9 0, i9 0, i9 0, i9 0, i9 0, i9 0, i9 0, i9 0, i9 0, i9 0, i9 0, i9 0, i9 0, i9 0, i9 0, i9 0, i9 0, i9 0, i9 0, i9 0, i9 0, i9 0, i9 0, i9 0, i9 0, i9 0, i9 0, i9 0, i9 0, i9 0, i9 0, i9 0, i9 0, i9 0, i9 0, i9 0, i9 0, i9 0, i9 0, i9 0, i9 0, i9 0, i9 0, i9 0, i9 0, i9 0, i9 0, i9 0, i9 0, i9 0, i9 0, i9 0, i9 0, i9 0, i9 0, i9 17, i9 35, i9 51, i9 67, i9 82, i9 97, i9 110, i9 124, i9 136, i9 147, i9 158, i9 169, i9 178, i9 187, i9 195, i9 203, i9 210, i9 216, i9 222, i9 228, i9 232, i9 237, i9 241, i9 244, i9 247, i9 249, i9 251, i9 253, i9 254, i9 255, i9 255, i9 -256, i9 255, i9 255, i9 254, i9 253, i9 252, i9 250, i9 248, i9 246, i9 244, i9 242, i9 239, i9 236, i9 233, i9 230, i9 227, i9 223, i9 220, i9 216, i9 212, i9 208, i9 204, i9 200, i9 196, i9 192, i9 187, i9 183, i9 178, i9 174, i9 169, i9 164, i9 160, i9 155, i9 150, i9 145, i9 140, i9 135, i9 130, i9 125, i9 121, i9 116, i9 111, i9 106, i9 101, i9 96, i9 91, i9 86, i9 81, i9 76, i9 71, i9 66, i9 61, i9 56, i9 51, i9 46, i9 42, i9 37, i9 32, i9 27, i9 23, i9 18, i9 13, i9 9, i9 4, i9 0, i9 0, i9 0, i9 0, i9 0, i9 0, i9 0, i9 0, i9 0, i9 0, i9 0, i9 0, i9 0, i9 0, i9 0, i9 0, i9 0, i9 0, i9 0, i9 0, i9 0, i9 0, i9 0, i9 0, i9 0, i9 0, i9 0, i9 0, i9 0, i9 0, i9 0, i9 0, i9 0, i9 0, i9 0, i9 0, i9 0, i9 0, i9 0, i9 0, i9 0, i9 0, i9 0, i9 0, i9 0, i9 0, i9 0, i9 0, i9 0, i9 0, i9 0, i9 0, i9 0, i9 0, i9 0, i9 0, i9 0, i9 0, i9 0, i9 0, i9 0, i9 0, i9 0, i9 0, i9 0, i9 0, i9 0, i9 0, i9 0, i9 0, i9 0, i9 0, i9 0, i9 0, i9 0, i9 0, i9 0, i9 0, i9 0, i9 0, i9 0, i9 0, i9 0, i9 0, i9 0, i9 0, i9 0, i9 0, i9 0, i9 0, i9 0, i9 0, i9 0, i9 0, i9 0, i9 0, i9 0, i9 0, i9 0, i9 0, i9 0, i9 0, i9 0, i9 0, i9 0, i9 0, i9 0, i9 0, i9 0, i9 0, i9 0, i9 0, i9 0, i9 0, i9 0, i9 0, i9 0, i9 0, i9 0, i9 0, i9 0, i9 0, i9 0, i9 0, i9 0, i9 0, i9 0, i9 0, i9 0, i9 0, i9 0, i9 0, i9 0, i9 0, i9 0, i9 0, i9 0, i9 0, i9 0, i9 0, i9 0, i9 0, i9 0, i9 0, i9 0, i9 35, i9 67, i9 97, i9 124, i9 147, i9 169, i9 187, i9 203, i9 216, i9 228, i9 237, i9 244, i9 249, i9 253, i9 255, i9 -256, i9 255, i9 253, i9 250, i9 246, i9 242, i9 236, i9 230, i9 223, i9 216, i9 208, i9 200, i9 192, i9 183, i9 174, i9 164, i9 155, i9 145, i9 135, i9 125, i9 116, i9 106, i9 96, i9 86, i9 76, i9 66, i9 56, i9 46, i9 37, i9 27, i9 18, i9 9, i9 0, i9 0, i9 0, i9 0, i9 0, i9 0, i9 0, i9 0, i9 0, i9 0, i9 0, i9 0, i9 0, i9 0, i9 0, i9 0, i9 0, i9 0, i9 0, i9 0, i9 0, i9 0, i9 0, i9 0, i9 0, i9 0, i9 0, i9 0, i9 0, i9 0, i9 0, i9 0, i9 0, i9 0, i9 0, i9 0, i9 0, i9 0, i9 0, i9 0, i9 0, i9 0, i9 0, i9 0, i9 0, i9 0, i9 0, i9 0, i9 0, i9 0, i9 0, i9 0, i9 0, i9 0, i9 0, i9 0, i9 0, i9 0, i9 0, i9 0, i9 0, i9 0, i9 0, i9 0, i9 0, i9 0, i9 0, i9 0, i9 0, i9 0, i9 0, i9 0, i9 0, i9 67, i9 124, i9 169, i9 203, i9 228, i9 244, i9 253, i9 -256, i9 253, i9 246, i9 236, i9 223, i9 208, i9 192, i9 174, i9 155, i9 135, i9 116, i9 96, i9 76, i9 56, i9 37, i9 18, i9 0, i9 0, i9 0, i9 0, i9 0, i9 0, i9 0, i9 0, i9 0, i9 0, i9 0, i9 0, i9 0, i9 0, i9 0, i9 0, i9 0, i9 0, i9 0, i9 0, i9 0, i9 0, i9 0, i9 0, i9 0, i9 0, i9 0, i9 0, i9 0, i9 0, i9 0, i9 0, i9 0, i9 0, i9 0, i9 0, i9 0, i9 124, i9 203, i9 244, i9 -256, i9 246, i9 223, i9 192, i9 155, i9 116, i9 76, i9 37, i9 0, i9 0, i9 0, i9 0, i9 0, i9 0, i9 0, i9 0, i9 0, i9 0, i9 0, i9 0, i9 0, i9 0, i9 0, i9 0, i9 -256, i9 -256, i9 -256, i9 -256, i9 -256, i9 223, i9 155, i9 76, i9 0, i9 76, i9 155, i9 223, i9 -256, i9 -256, i9 -256, i9 -256] ; [#uses=1 type=[1520 x i9]*]
@ap_fifo_str = internal unnamed_addr constant [8 x i8] c"ap_fifo\00" ; [#uses=26 type=[8 x i8]*]
@p_str311 = private unnamed_addr constant [12 x i8] c"hls_label_2\00", align 1 ; [#uses=2 type=[12 x i8]*]
@p_str309 = private unnamed_addr constant [12 x i8] c"fixed_point\00", align 1 ; [#uses=2 type=[12 x i8]*]
@p_str308 = private unnamed_addr constant [15 x i8] c"butterfly_type\00", align 1 ; [#uses=2 type=[15 x i8]*]
@p_str307 = private unnamed_addr constant [18 x i8] c"complex_mult_type\00", align 1 ; [#uses=2 type=[18 x i8]*]
@p_str306 = private unnamed_addr constant [22 x i8] c"memory_options_hybrid\00", align 1 ; [#uses=2 type=[22 x i8]*]
@p_str305 = private unnamed_addr constant [60 x i8] c"number_of_stages_using_block_ram_for_data_and_phase_factors\00", align 1 ; [#uses=2 type=[60 x i8]*]
@p_str304 = private unnamed_addr constant [23 x i8] c"memory_options_reorder\00", align 1 ; [#uses=2 type=[23 x i8]*]
@p_str303 = private unnamed_addr constant [29 x i8] c"memory_options_phase_factors\00", align 1 ; [#uses=2 type=[29 x i8]*]
@p_str302 = private unnamed_addr constant [20 x i8] c"memory_options_data\00", align 1 ; [#uses=2 type=[20 x i8]*]
@p_str301 = private unnamed_addr constant [24 x i8] c"cyclic_prefix_insertion\00", align 1 ; [#uses=2 type=[24 x i8]*]
@p_str300 = private unnamed_addr constant [16 x i8] c"output_ordering\00", align 1 ; [#uses=2 type=[16 x i8]*]
@p_str299 = private unnamed_addr constant [12 x i8] c"nonrealtime\00", align 1 ; [#uses=2 type=[12 x i8]*]
@p_str298 = private unnamed_addr constant [16 x i8] c"throttle_scheme\00", align 1 ; [#uses=2 type=[16 x i8]*]
@p_str297 = private unnamed_addr constant [9 x i8] c"xk_index\00", align 1 ; [#uses=2 type=[9 x i8]*]
@p_str296 = private unnamed_addr constant [6 x i8] c"ovflo\00", align 1 ; [#uses=2 type=[6 x i8]*]
@p_str295 = private unnamed_addr constant [8 x i8] c"aresetn\00", align 1 ; [#uses=2 type=[8 x i8]*]
@p_str294 = private unnamed_addr constant [5 x i8] c"true\00", align 1 ; [#uses=4 type=[5 x i8]*]
@p_str293 = private unnamed_addr constant [7 x i8] c"aclken\00", align 1 ; [#uses=2 type=[7 x i8]*]
@p_str292 = private unnamed_addr constant [15 x i8] c"rounding_modes\00", align 1 ; [#uses=2 type=[15 x i8]*]
@p_str291 = private unnamed_addr constant [16 x i8] c"scaling_options\00", align 1 ; [#uses=2 type=[16 x i8]*]
@p_str290 = private unnamed_addr constant [19 x i8] c"phase_factor_width\00", align 1 ; [#uses=2 type=[19 x i8]*]
@p_str289 = private unnamed_addr constant [13 x i8] c"output_width\00", align 1 ; [#uses=2 type=[13 x i8]*]
@p_str288 = private unnamed_addr constant [12 x i8] c"input_width\00", align 1 ; [#uses=2 type=[12 x i8]*]
@p_str287 = private unnamed_addr constant [12 x i8] c"data_format\00", align 1 ; [#uses=2 type=[12 x i8]*]
@p_str286 = private unnamed_addr constant [39 x i8] c"run_time_configurable_transform_length\00", align 1 ; [#uses=2 type=[39 x i8]*]
@p_str285 = private unnamed_addr constant [23 x i8] c"implementation_options\00", align 1 ; [#uses=2 type=[23 x i8]*]
@p_str284 = private unnamed_addr constant [17 x i8] c"transform_length\00", align 1 ; [#uses=2 type=[17 x i8]*]
@p_str283 = private unnamed_addr constant [9 x i8] c"channels\00", align 1 ; [#uses=2 type=[9 x i8]*]
@p_str282 = private unnamed_addr constant [16 x i8] c"parameterizable\00", align 1 ; [#uses=2 type=[16 x i8]*]
@p_str281 = private unnamed_addr constant [11 x i8] c"Vivado_FFT\00", align 1 ; [#uses=2 type=[11 x i8]*]
@p_str278 = private unnamed_addr constant [8 x i8] c"ap_fifo\00", align 1 ; [#uses=8 type=[8 x i8]*]
@p_str277 = private unnamed_addr constant [12 x i8] c"hls_label_0\00", align 1 ; [#uses=2 type=[12 x i8]*]
@p_str276 = private unnamed_addr constant [12 x i8] c"hls_label_1\00", align 1 ; [#uses=2 type=[12 x i8]*]
@p_str275 = private unnamed_addr constant [1 x i8] zeroinitializer, align 1 ; [#uses=61 type=[1 x i8]*]
@p_str274 = private unnamed_addr constant [5 x i8] c"axis\00", align 1 ; [#uses=4 type=[5 x i8]*]
@p_str = internal unnamed_addr constant [1 x i8] zeroinitializer ; [#uses=124 type=[1 x i8]*]

; [#uses=0]
define void @pyrconstuct_top(i32* %imgIn, i24* %pyrFilOut_V_M_real_V, i24* %pyrFilOut_V_M_imag_V, i32 %nL) {
codeRepl:
  %fft_config2_data_V = alloca i16, align 2       ; [#uses=5 type=i16*]
  %fft_config_data_V_channel = alloca i8, align 1 ; [#uses=5 type=i8*]
  call void (...)* @_ssdm_op_SpecDataflowPipeline(i32 -1, [1 x i8]* @p_str275) nounwind, !dbg !7 ; [debug line = 226:1]
  call void (...)* @_ssdm_op_SpecBitsMap(i32* %imgIn), !map !2678
  %imgOutTmpFFTStream_channel = alloca i48, align 8 ; [#uses=6 type=i48*]
  %empty = call i32 (...)* @_ssdm_op_SpecChannel([27 x i8]* @imgOutTmpFFTStream_OC_channel_s, i32 1, [1 x i8]* @p_str, [1 x i8]* @p_str, i32 512, i32 512, i48* %imgOutTmpFFTStream_channel, i48* %imgOutTmpFFTStream_channel) ; [#uses=0 type=i32]
  call void (...)* @_ssdm_op_SpecInterface(i48* %imgOutTmpFFTStream_channel, [8 x i8]* @ap_fifo_str, i32 0, i32 0, i32 0, i32 0, [1 x i8]* @p_str, [1 x i8]* @p_str, [1 x i8]* @p_str, [1 x i8]* @p_str)
  %imgInTmp2_channel = alloca i32, align 4        ; [#uses=6 type=i32*]
  %empty_23 = call i32 (...)* @_ssdm_op_SpecChannel([18 x i8]* @imgInTmp2_OC_channel_str, i32 1, [1 x i8]* @p_str, [1 x i8]* @p_str, i32 512, i32 512, i32* %imgInTmp2_channel, i32* %imgInTmp2_channel) ; [#uses=0 type=i32]
  call void (...)* @_ssdm_op_SpecInterface(i32* %imgInTmp2_channel, [8 x i8]* @ap_fifo_str, i32 0, i32 0, i32 0, i32 0, [1 x i8]* @p_str, [1 x i8]* @p_str, [1 x i8]* @p_str, [1 x i8]* @p_str)
  %imgInTmp_channel = alloca i32, align 4         ; [#uses=6 type=i32*]
  %empty_24 = call i32 (...)* @_ssdm_op_SpecChannel([17 x i8]* @imgInTmp_OC_channel_str, i32 1, [1 x i8]* @p_str, [1 x i8]* @p_str, i32 512, i32 512, i32* %imgInTmp_channel, i32* %imgInTmp_channel) ; [#uses=0 type=i32]
  call void (...)* @_ssdm_op_SpecInterface(i32* %imgInTmp_channel, [8 x i8]* @ap_fifo_str, i32 0, i32 0, i32 0, i32 0, [1 x i8]* @p_str, [1 x i8]* @p_str, [1 x i8]* @p_str, [1 x i8]* @p_str)
  %ifftPyrOut_channel = alloca i48, align 8       ; [#uses=6 type=i48*]
  %empty_25 = call i32 (...)* @_ssdm_op_SpecChannel([19 x i8]* @ifftPyrOut_OC_channel_str, i32 1, [1 x i8]* @p_str, [1 x i8]* @p_str, i32 512, i32 512, i48* %ifftPyrOut_channel, i48* %ifftPyrOut_channel) ; [#uses=0 type=i32]
  call void (...)* @_ssdm_op_SpecInterface(i48* %ifftPyrOut_channel, [8 x i8]* @ap_fifo_str, i32 0, i32 0, i32 0, i32 0, [1 x i8]* @p_str, [1 x i8]* @p_str, [1 x i8]* @p_str, [1 x i8]* @p_str)
  call void (...)* @_ssdm_op_SpecBitsMap(i24* %pyrFilOut_V_M_real_V), !map !2687
  call void (...)* @_ssdm_op_SpecBitsMap(i24* %pyrFilOut_V_M_imag_V), !map !2693
  call void (...)* @_ssdm_op_SpecBitsMap(i32 %nL), !map !2697
  call void (...)* @_ssdm_op_SpecTopModule([16 x i8]* @pyrconstuct_top_str) nounwind
  %imgOutTmpBlockRam_M_real_V = alloca [512 x i24], align 4 ; [#uses=2 type=[512 x i24]*]
  %imgOutTmpBlockRam_M_imag_V = alloca [512 x i24], align 4 ; [#uses=2 type=[512 x i24]*]
  %fftPyrOut_M_real_V = alloca i24, align 4       ; [#uses=8 type=i24*]
  %empty_26 = call i32 (...)* @_ssdm_op_SpecChannel([28 x i8]* @fftPyrOut_OC_M_real_OC_V_OC_c, i32 1, [1 x i8]* @p_str, [1 x i8]* @p_str, i32 1520, i32 1520, i24* %fftPyrOut_M_real_V, i24* %fftPyrOut_M_real_V) ; [#uses=0 type=i32]
  call void (...)* @_ssdm_op_SpecInterface(i24* %fftPyrOut_M_real_V, [8 x i8]* @ap_fifo_str, i32 0, i32 0, i32 0, i32 0, [1 x i8]* @p_str, [1 x i8]* @p_str, [1 x i8]* @p_str, [1 x i8]* @p_str)
  %fftPyrOut_M_imag_V = alloca i24, align 4       ; [#uses=8 type=i24*]
  %empty_27 = call i32 (...)* @_ssdm_op_SpecChannel([28 x i8]* @fftPyrOut_OC_M_imag_OC_V_OC_c, i32 1, [1 x i8]* @p_str, [1 x i8]* @p_str, i32 1520, i32 1520, i24* %fftPyrOut_M_imag_V, i24* %fftPyrOut_M_imag_V) ; [#uses=0 type=i32]
  call void (...)* @_ssdm_op_SpecInterface(i24* %fftPyrOut_M_imag_V, [8 x i8]* @ap_fifo_str, i32 0, i32 0, i32 0, i32 0, [1 x i8]* @p_str, [1 x i8]* @p_str, [1 x i8]* @p_str, [1 x i8]* @p_str)
  %fft_status_data_V = alloca i8, align 1         ; [#uses=2 type=i8*]
  %fft_status2_data_V = alloca i8, align 1        ; [#uses=2 type=i8*]
  call void (...)* @_ssdm_op_SpecInterface(i32* %imgIn, [5 x i8]* @p_str274, i32 0, i32 0, i32 0, i32 512, [1 x i8]* @p_str275, [1 x i8]* @p_str275, [1 x i8]* @p_str275, [1 x i8]* @p_str275)
  call void (...)* @_ssdm_op_SpecInterface(i24* %pyrFilOut_V_M_real_V, i24* %pyrFilOut_V_M_imag_V, [5 x i8]* @p_str274, i32 0, i32 0, i32 0, i32 1520, [1 x i8]* @p_str275, [1 x i8]* @p_str275, [1 x i8]* @p_str275, [1 x i8]* @p_str275), !dbg !2703 ; [debug line = 160:1]
  call void (...)* @_ssdm_op_SpecDataflowPipeline(i32 -1, [1 x i8]* @p_str275) nounwind, !dbg !2704 ; [debug line = 165:1]
  call void @llvm.dbg.value(metadata !{i32* %imgIn}, i64 0, metadata !2705), !dbg !2720 ; [debug line = 150:17] [debug variable = imgIn]
  call void @llvm.dbg.value(metadata !{i24* %pyrFilOut_V_M_real_V}, i64 0, metadata !2721), !dbg !2734 ; [debug line = 152:34] [debug variable = pyrFilOut.V._M_real.V]
  call void @llvm.dbg.value(metadata !{i24* %pyrFilOut_V_M_imag_V}, i64 0, metadata !2735), !dbg !2734 ; [debug line = 152:34] [debug variable = pyrFilOut.V._M_imag.V]
  call void @llvm.dbg.value(metadata !{i32 %nL}, i64 0, metadata !2736), !dbg !2737 ; [debug line = 153:19] [debug variable = nL]
  call void @llvm.dbg.declare(metadata !{[512 x i24]* %imgOutTmpBlockRam_M_real_V}, metadata !2738), !dbg !2871 ; [debug line = 170:14] [debug variable = imgOutTmpBlockRam._M_real.V]
  call void @llvm.dbg.declare(metadata !{[512 x i24]* %imgOutTmpBlockRam_M_imag_V}, metadata !2872), !dbg !2871 ; [debug line = 170:14] [debug variable = imgOutTmpBlockRam._M_imag.V]
  call void @llvm.dbg.declare(metadata !{i24* %fftPyrOut_M_real_V}, metadata !2873), !dbg !2879 ; [debug line = 172:14] [debug variable = fftPyrOut._M_real.V]
  call void @llvm.dbg.declare(metadata !{i24* %fftPyrOut_M_imag_V}, metadata !2880), !dbg !2879 ; [debug line = 172:14] [debug variable = fftPyrOut._M_imag.V]
  call void @llvm.dbg.declare(metadata !{i16* %fft_config2_data_V}, metadata !2881), !dbg !3340 ; [debug line = 175:12] [debug variable = fft_config2.data.V]
  call void @llvm.dbg.declare(metadata !{i8* %fft_status_data_V}, metadata !3341), !dbg !4039 ; [debug line = 176:11] [debug variable = fft_status.data.V]
  call void @llvm.dbg.declare(metadata !{i8* %fft_status2_data_V}, metadata !4040), !dbg !4073 ; [debug line = 177:12] [debug variable = fft_status2.data.V]
  call fastcc void @pyrconstuct_top_Block_codeRepl20_proc(i8* %fft_config_data_V_channel)
  call fastcc void @pyrconstuct_top_Loop_1_proc(i32* %imgIn, i32* %imgInTmp_channel)
  call void (...)* @_ssdm_op_SpecInterface(i32* %imgInTmp_channel, [8 x i8]* @ap_fifo_str, i32 0, i32 0, i32 0, i32 0, [1 x i8]* @p_str, [1 x i8]* @p_str, [1 x i8]* @p_str, [1 x i8]* @p_str)
  call void (...)* @_ssdm_op_SpecInterface(i48* %imgOutTmpFFTStream_channel, [8 x i8]* @ap_fifo_str, i32 0, i32 0, i32 0, i32 0, [1 x i8]* @p_str, [1 x i8]* @p_str, [1 x i8]* @p_str, [1 x i8]* @p_str)
  call void (...)* @_ssdm_op_SpecInterface(i8* %fft_status_data_V, [8 x i8]* @ap_fifo_str, i32 0, i32 0, i32 0, i32 0, [1 x i8]* @p_str, [1 x i8]* @p_str, [1 x i8]* @p_str, [1 x i8]* @p_str)
  call void (...)* @_ssdm_op_SpecInterface(i8* %fft_config_data_V_channel, [8 x i8]* @ap_fifo_str, i32 0, i32 0, i32 0, i32 0, [1 x i8]* @p_str, [1 x i8]* @p_str, [1 x i8]* @p_str, [1 x i8]* @p_str)
  %empty_28 = call i32 (...)* @_ssdm_op_SpecChannel([26 x i8]* @fft_config_OC_data_OC_V_OC_cha, i32 1, [1 x i8]* @p_str, [1 x i8]* @p_str, i32 1, i32 0, i8* %fft_config_data_V_channel, i8* %fft_config_data_V_channel) ; [#uses=0 type=i32]
  call fastcc void @"fft<config1>"(i32* %imgInTmp_channel, i48* %imgOutTmpFFTStream_channel, i8* %fft_status_data_V, i8* %fft_config_data_V_channel)
  call fastcc void @pyrconstuct_top_Loop_2_proc(i48* %imgOutTmpFFTStream_channel, [512 x i24]* %imgOutTmpBlockRam_M_real_V, [512 x i24]* %imgOutTmpBlockRam_M_imag_V)
  call fastcc void @pyrconstuct_top_Loop_3_proc([512 x i24]* %imgOutTmpBlockRam_M_real_V, [512 x i24]* %imgOutTmpBlockRam_M_imag_V, i24* %fftPyrOut_M_real_V, i24* %fftPyrOut_M_imag_V)
  %empty_29 = call i32 (...)* @_ssdm_op_SpecChannel([20 x i8]* @fftPyrOut_OC_M_real_OC_V_str, i32 1, [1 x i8]* @p_str, [1 x i8]* @p_str, i32 1520, i32 1520, i24* %fftPyrOut_M_real_V, i24* %fftPyrOut_M_real_V) ; [#uses=0 type=i32]
  call void (...)* @_ssdm_op_SpecInterface(i24* %fftPyrOut_M_real_V, [8 x i8]* @ap_fifo_str, i32 0, i32 0, i32 0, i32 0, [1 x i8]* @p_str, [1 x i8]* @p_str, [1 x i8]* @p_str, [1 x i8]* @p_str)
  %empty_30 = call i32 (...)* @_ssdm_op_SpecChannel([20 x i8]* @fftPyrOut_OC_M_imag_OC_V_str, i32 1, [1 x i8]* @p_str, [1 x i8]* @p_str, i32 1520, i32 1520, i24* %fftPyrOut_M_imag_V, i24* %fftPyrOut_M_imag_V) ; [#uses=0 type=i32]
  call void (...)* @_ssdm_op_SpecInterface(i24* %fftPyrOut_M_imag_V, [8 x i8]* @ap_fifo_str, i32 0, i32 0, i32 0, i32 0, [1 x i8]* @p_str, [1 x i8]* @p_str, [1 x i8]* @p_str, [1 x i8]* @p_str)
  call fastcc void @pyrconstuct_top_Loop_4_proc(i24* %fftPyrOut_M_real_V, i24* %fftPyrOut_M_imag_V, i32* %imgInTmp2_channel)
  call fastcc void @pyrconstuct_top_Block__proc(i16* %fft_config2_data_V)
  call void (...)* @_ssdm_op_SpecInterface(i32* %imgInTmp2_channel, [8 x i8]* @ap_fifo_str, i32 0, i32 0, i32 0, i32 0, [1 x i8]* @p_str, [1 x i8]* @p_str, [1 x i8]* @p_str, [1 x i8]* @p_str)
  call void (...)* @_ssdm_op_SpecInterface(i48* %ifftPyrOut_channel, [8 x i8]* @ap_fifo_str, i32 0, i32 0, i32 0, i32 0, [1 x i8]* @p_str, [1 x i8]* @p_str, [1 x i8]* @p_str, [1 x i8]* @p_str)
  call void (...)* @_ssdm_op_SpecInterface(i8* %fft_status2_data_V, [8 x i8]* @ap_fifo_str, i32 0, i32 0, i32 0, i32 0, [1 x i8]* @p_str, [1 x i8]* @p_str, [1 x i8]* @p_str, [1 x i8]* @p_str)
  call void (...)* @_ssdm_op_SpecInterface(i16* %fft_config2_data_V, [8 x i8]* @ap_fifo_str, i32 0, i32 0, i32 0, i32 0, [1 x i8]* @p_str, [1 x i8]* @p_str, [1 x i8]* @p_str, [1 x i8]* @p_str)
  %empty_31 = call i32 (...)* @_ssdm_op_SpecChannel([27 x i8]* @fft_config2_OC_data_OC_V_OC_ch, i32 1, [1 x i8]* @p_str, [1 x i8]* @p_str, i32 1, i32 0, i16* %fft_config2_data_V, i16* %fft_config2_data_V) ; [#uses=0 type=i32]
  call fastcc void @"fft<config2>"(i32* %imgInTmp2_channel, i48* %ifftPyrOut_channel, i8* %fft_status2_data_V, i16* %fft_config2_data_V)
  call fastcc void @pyrconstuct_top_Loop_5_proc(i48* %ifftPyrOut_channel, i24* %pyrFilOut_V_M_real_V, i24* %pyrFilOut_V_M_imag_V)
  ret void, !dbg !4074                            ; [debug line = 277:1]
}

; [#uses=1]
declare i16 @llvm.part.set.i16.i9(i16, i9, i32, i32) nounwind readnone

; [#uses=1]
declare i8 @llvm.part.select.i8(i8, i32, i32) nounwind readnone

; [#uses=2]
declare i48 @llvm.part.select.i48(i48, i32, i32) nounwind readnone

; [#uses=3]
declare i32 @llvm.part.select.i32(i32, i32, i32) nounwind readnone

; [#uses=1]
declare i24 @llvm.part.select.i24(i24, i32, i32) nounwind readnone

; [#uses=1]
declare i16 @llvm.part.select.i16(i16, i32, i32) nounwind readnone

; [#uses=1]
declare i10 @llvm.part.select.i10(i10, i32, i32) nounwind readnone

; [#uses=55]
declare void @llvm.dbg.value(metadata, i64, metadata) nounwind readnone

; [#uses=8]
declare void @llvm.dbg.declare(metadata, metadata) nounwind readnone

; [#uses=1]
define internal fastcc void @"fft<config2>"(i32* %xn, i48* %xk, i8* %status_data_V, i16* %config_ch_data_V) {
_ZN3hls6ip_fft8config_tI7config2E6getSchEj.exit.i:
  call void @llvm.dbg.value(metadata !{i32* %xn}, i64 0, metadata !4075), !dbg !4205 ; [debug line = 911:60] [debug variable = xn]
  call void @llvm.dbg.value(metadata !{i48* %xk}, i64 0, metadata !4206), !dbg !4216 ; [debug line = 912:116] [debug variable = xk]
  call void @llvm.dbg.value(metadata !{i8* %status_data_V}, i64 0, metadata !4217), !dbg !4220 ; [debug line = 913:33] [debug variable = status.data.V]
  call void @llvm.dbg.value(metadata !{i16* %config_ch_data_V}, i64 0, metadata !4221), !dbg !4224 ; [debug line = 914:33] [debug variable = config_ch.data.V]
  call void (...)* @_ssdm_op_SpecIPCore(i32 0, [1 x i8]* @p_str275, [11 x i8]* @p_str281, [1 x i8]* @p_str275, i32 -1, [1 x i8]* @p_str275, [1 x i8]* @p_str275, [16 x i8]* @p_str282), !dbg !4225 ; [debug line = 917:1]
  call void (...)* @_ssdm_op_SpecInterface(i16* %config_ch_data_V, [8 x i8]* @p_str278, i32 0, i32 0, i32 0, i32 0, [1 x i8]* @p_str275, [1 x i8]* @p_str275, [1 x i8]* @p_str275, [1 x i8]* @p_str275) nounwind, !dbg !4227 ; [debug line = 919:1]
  call void (...)* @_ssdm_op_SpecInterface(i8* %status_data_V, [8 x i8]* @p_str278, i32 0, i32 0, i32 0, i32 0, [1 x i8]* @p_str275, [1 x i8]* @p_str275, [1 x i8]* @p_str275, [1 x i8]* @p_str275) nounwind, !dbg !4228 ; [debug line = 920:1]
  call void (...)* @_ssdm_op_SpecInterface(i32* %xn, [8 x i8]* @p_str278, i32 0, i32 0, i32 0, i32 0, [1 x i8]* @p_str275, [1 x i8]* @p_str275, [1 x i8]* @p_str275, [1 x i8]* @p_str275)
  call void (...)* @_ssdm_op_SpecInterface(i48* %xk, [8 x i8]* @p_str278, i32 0, i32 0, i32 0, i32 0, [1 x i8]* @p_str275, [1 x i8]* @p_str275, [1 x i8]* @p_str275, [1 x i8]* @p_str275)
  call void @llvm.dbg.value(metadata !{i8* %status_data_V}, i64 0, metadata !4229), !dbg !4240 ; [debug line = 836:33@927:2] [debug variable = status.data.V]
  call void @llvm.dbg.value(metadata !{i16* %config_ch_data_V}, i64 0, metadata !4242), !dbg !4244 ; [debug line = 837:33@927:2] [debug variable = config_ch.data.V]
  call void (...)* @_ssdm_op_SpecKeepValue([9 x i8]* @p_str283, i32 1, [17 x i8]* @p_str284, i32 512, [23 x i8]* @p_str285, i32 2, [39 x i8]* @p_str286, i32 1, [12 x i8]* @p_str287, [12 x i8]* @p_str309, [12 x i8]* @p_str288, i32 14, [13 x i8]* @p_str289, i32 24, [19 x i8]* @p_str290, i32 16, [16 x i8]* @p_str291, i32 1, [15 x i8]* @p_str292, i32 0, [7 x i8]* @p_str293, [5 x i8]* @p_str294, [8 x i8]* @p_str295, [5 x i8]* @p_str294, [6 x i8]* @p_str296, i32 1, [9 x i8]* @p_str297, i32 0, [16 x i8]* @p_str298, [12 x i8]* @p_str299, [16 x i8]* @p_str300, i32 1, [24 x i8]* @p_str301, i32 0, [20 x i8]* @p_str302, i32 0, [29 x i8]* @p_str303, i32 0, [23 x i8]* @p_str304, i32 0, [60 x i8]* @p_str305, i32 1, [22 x i8]* @p_str306, i32 0, [18 x i8]* @p_str307, i32 1, [15 x i8]* @p_str308, i32 0) nounwind, !dbg !4245 ; [debug line = 842:2@927:2]
  call void @llvm.dbg.value(metadata !{i16* %config_ch_data_V}, i64 0, metadata !4247), !dbg !4250 ; [debug line = 301:52@871:28@927:2] [debug variable = config_t<config2>.data.V]
  call void @llvm.dbg.value(metadata !{i16* %config_ch_data_V}, i64 0, metadata !4252), !dbg !4255 ; [debug line = 194:48@304:9@871:28@927:2] [debug variable = config_t<config2>.data.V]
  %p_Val2_s = call i16 @_ssdm_op_Read.ap_fifo.i16P(i16* %config_ch_data_V), !dbg !4258 ; [#uses=2 type=i16] [debug line = 1150:93@943:16@314:16@871:28@927:2]
  call void @llvm.dbg.value(metadata !{i16 %p_Val2_s}, i64 0, metadata !4266), !dbg !4258 ; [debug line = 1150:93@943:16@314:16@871:28@927:2] [debug variable = __Val2__]
  call void @llvm.dbg.value(metadata !{i16* %config_ch_data_V}, i64 0, metadata !4267), !dbg !4270 ; [debug line = 267:52@872:26@927:2] [debug variable = config_t<config2>.data.V]
  %p_Result_8 = call i1 @_ssdm_op_PartSelect.i1.i16.i32.i32(i16 %p_Val2_s, i32 8, i32 8), !dbg !4272 ; [#uses=3 type=i1] [debug line = 1150:95@943:16@274:16@872:26@927:2]
  %tmp = call i1 @_ssdm_op_PartSelect.i1.i16.i32.i32(i16 %p_Val2_s, i32 9, i32 9) ; [#uses=1 type=i1]
  %tmp_1 = or i1 %tmp, %p_Result_8                ; [#uses=1 type=i1]
  %tmp_2 = call i2 @_ssdm_op_BitConcatenate.i2.i1.i1(i1 %p_Result_8, i1 %tmp_1) ; [#uses=1 type=i2]
  %tmp_s = icmp eq i2 %tmp_2, 0, !dbg !4276       ; [#uses=1 type=i1] [debug line = 874:5@927:2]
  br i1 %tmp_s, label %_ZN3hls8fft_coreI7config2Lc14ELc24E8ap_fixedILi16ELi1EL9ap_q_mode5EL9ap_o_mode3ELi0EES2_ILi24ELi11ELS3_5ELS4_3ELi0EELi512ELc1ELNS_6ip_fft4typeE0EEEvPSt7complexIT2_EPS9_IT3_EPNS7_8status_tIT_EEPNS7_8config_tISH_EE.exit, label %.preheader, !dbg !4276 ; [debug line = 874:5@927:2]

.preheader:                                       ; preds = %0, %_ZN3hls6ip_fft8config_tI7config2E6getSchEj.exit.i
  %i_i = phi i32 [ %i, %0 ], [ 0, %_ZN3hls6ip_fft8config_tI7config2E6getSchEj.exit.i ] ; [#uses=2 type=i32]
  %exitcond = icmp eq i32 %i_i, 512, !dbg !4277   ; [#uses=1 type=i1] [debug line = 875:23@927:2]
  %empty = call i32 (...)* @_ssdm_op_SpecLoopTripCount(i64 512, i64 512, i64 512) ; [#uses=0 type=i32]
  %i = add nsw i32 %i_i, 1, !dbg !4279            ; [#uses=1 type=i32] [debug line = 875:41@927:2]
  br i1 %exitcond, label %_ZN3hls8fft_coreI7config2Lc14ELc24E8ap_fixedILi16ELi1EL9ap_q_mode5EL9ap_o_mode3ELi0EES2_ILi24ELi11ELS3_5ELS4_3ELi0EELi512ELc1ELNS_6ip_fft4typeE0EEEvPSt7complexIT2_EPS9_IT3_EPNS7_8status_tIT_EEPNS7_8config_tISH_EE.exit, label %0, !dbg !4277 ; [debug line = 875:23@927:2]

; <label>:0                                       ; preds = %.preheader
  %xn_read = call i32 @_ssdm_op_Read.ap_fifo.volatile.i32P(i32* %xn), !dbg !4280 ; [#uses=2 type=i32] [debug line = 296:62@296:63@259:17@877:13@927:2]
  %tmp_4 = call i14 @_ssdm_op_PartSelect.i14.i32.i32.i32(i32 %xn_read, i32 2, i32 15), !dbg !4293 ; [#uses=1 type=i14] [debug line = 680:17@296:62@296:63@259:17@877:13@927:2]
  %tmp_5 = sext i14 %tmp_4 to i24, !dbg !4293     ; [#uses=1 type=i24] [debug line = 680:17@296:62@296:63@259:17@877:13@927:2]
  %tmp_7 = call i14 @_ssdm_op_PartSelect.i14.i32.i32.i32(i32 %xn_read, i32 18, i32 31), !dbg !4299 ; [#uses=1 type=i14] [debug line = 680:17@296:62@296:63@260:17@877:13@927:2]
  %tmp_8 = call i38 @_ssdm_op_BitConcatenate.i38.i14.i24(i14 %tmp_7, i24 %tmp_5) ; [#uses=1 type=i38]
  %xk_M_imag_V_addr101516_part_s = sext i38 %tmp_8 to i48, !dbg !4303 ; [#uses=1 type=i48] [debug line = 382:9@260:17@877:13@927:2]
  call void @_ssdm_op_Write.ap_fifo.volatile.i48P(i48* %xk, i48 %xk_M_imag_V_addr101516_part_s), !dbg !4303 ; [debug line = 382:9@260:17@877:13@927:2]
  call void @llvm.dbg.value(metadata !{i32 %i}, i64 0, metadata !4306), !dbg !4279 ; [debug line = 875:41@927:2] [debug variable = i]
  br label %.preheader, !dbg !4279                ; [debug line = 875:41@927:2]

_ZN3hls8fft_coreI7config2Lc14ELc24E8ap_fixedILi16ELi1EL9ap_q_mode5EL9ap_o_mode3ELi0EES2_ILi24ELi11ELS3_5ELS4_3ELi0EELi512ELc1ELNS_6ip_fft4typeE0EEEvPSt7complexIT2_EPS9_IT3_EPNS7_8status_tIT_EEPNS7_8config_tISH_EE.exit: ; preds = %.preheader, %_ZN3hls6ip_fft8config_tI7config2E6getSchEj.exit.i
  call void @llvm.dbg.value(metadata !{i16* %config_ch_data_V}, i64 0, metadata !4267), !dbg !4307 ; [debug line = 267:52@880:20@927:2] [debug variable = config_t<config2>.data.V]
  call void @llvm.dbg.value(metadata !{i16 %p_Val2_s}, i64 0, metadata !4266), !dbg !4309 ; [debug line = 1150:93@943:16@274:16@880:20@927:2] [debug variable = __Val2__]
  %p_s = zext i1 %p_Result_8 to i8, !dbg !4312    ; [#uses=1 type=i8] [debug line = 251:71@251:86@880:20@927:2]
  call void @_ssdm_op_Write.ap_fifo.i8P(i8* %status_data_V, i8 %p_s), !dbg !4317 ; [debug line = 277:10@880:20@927:2]
  ret void, !dbg !4320                            ; [debug line = 938:1]
}

; [#uses=1]
define internal fastcc void @"fft<config1>"(i32* %xn, i48* %xk, i8* %status_data_V, i8* %config_ch_data_V) {
_ZN3hls6ip_fft8config_tI7config1E6getSchEj.exit.i:
  call void @llvm.dbg.value(metadata !{i32* %xn}, i64 0, metadata !4321), !dbg !4374 ; [debug line = 911:60] [debug variable = xn]
  call void @llvm.dbg.value(metadata !{i48* %xk}, i64 0, metadata !4375), !dbg !4379 ; [debug line = 912:116] [debug variable = xk]
  call void @llvm.dbg.value(metadata !{i8* %status_data_V}, i64 0, metadata !4380), !dbg !4383 ; [debug line = 913:33] [debug variable = status.data.V]
  call void @llvm.dbg.value(metadata !{i8* %config_ch_data_V}, i64 0, metadata !4384), !dbg !4388 ; [debug line = 914:33] [debug variable = config_ch.data.V]
  call void (...)* @_ssdm_op_SpecIPCore(i32 0, [1 x i8]* @p_str275, [11 x i8]* @p_str281, [1 x i8]* @p_str275, i32 -1, [1 x i8]* @p_str275, [1 x i8]* @p_str275, [16 x i8]* @p_str282), !dbg !4389 ; [debug line = 917:1]
  call void (...)* @_ssdm_op_SpecInterface(i8* %config_ch_data_V, [8 x i8]* @p_str278, i32 0, i32 0, i32 0, i32 0, [1 x i8]* @p_str275, [1 x i8]* @p_str275, [1 x i8]* @p_str275, [1 x i8]* @p_str275) nounwind, !dbg !4391 ; [debug line = 919:1]
  call void (...)* @_ssdm_op_SpecInterface(i8* %status_data_V, [8 x i8]* @p_str278, i32 0, i32 0, i32 0, i32 0, [1 x i8]* @p_str275, [1 x i8]* @p_str275, [1 x i8]* @p_str275, [1 x i8]* @p_str275) nounwind, !dbg !4392 ; [debug line = 920:1]
  call void (...)* @_ssdm_op_SpecInterface(i32* %xn, [8 x i8]* @p_str278, i32 0, i32 0, i32 0, i32 0, [1 x i8]* @p_str275, [1 x i8]* @p_str275, [1 x i8]* @p_str275, [1 x i8]* @p_str275)
  call void (...)* @_ssdm_op_SpecInterface(i48* %xk, [8 x i8]* @p_str278, i32 0, i32 0, i32 0, i32 0, [1 x i8]* @p_str275, [1 x i8]* @p_str275, [1 x i8]* @p_str275, [1 x i8]* @p_str275)
  call void @llvm.dbg.value(metadata !{i8* %status_data_V}, i64 0, metadata !4393), !dbg !4399 ; [debug line = 836:33@927:2] [debug variable = status.data.V]
  call void @llvm.dbg.value(metadata !{i8* %config_ch_data_V}, i64 0, metadata !4401), !dbg !4403 ; [debug line = 837:33@927:2] [debug variable = config_ch.data.V]
  call void (...)* @_ssdm_op_SpecKeepValue([9 x i8]* @p_str283, i32 1, [17 x i8]* @p_str284, i32 512, [23 x i8]* @p_str285, i32 2, [39 x i8]* @p_str286, i32 0, [12 x i8]* @p_str287, [12 x i8]* @p_str309, [12 x i8]* @p_str288, i32 9, [13 x i8]* @p_str289, i32 24, [19 x i8]* @p_str290, i32 16, [16 x i8]* @p_str291, i32 1, [15 x i8]* @p_str292, i32 0, [7 x i8]* @p_str293, [5 x i8]* @p_str294, [8 x i8]* @p_str295, [5 x i8]* @p_str294, [6 x i8]* @p_str296, i32 1, [9 x i8]* @p_str297, i32 0, [16 x i8]* @p_str298, [12 x i8]* @p_str299, [16 x i8]* @p_str300, i32 1, [24 x i8]* @p_str301, i32 0, [20 x i8]* @p_str302, i32 0, [29 x i8]* @p_str303, i32 0, [23 x i8]* @p_str304, i32 0, [60 x i8]* @p_str305, i32 1, [22 x i8]* @p_str306, i32 0, [18 x i8]* @p_str307, i32 1, [15 x i8]* @p_str308, i32 0) nounwind, !dbg !4404 ; [debug line = 842:2@927:2]
  call void @llvm.dbg.value(metadata !{i8* %config_ch_data_V}, i64 0, metadata !4406), !dbg !4409 ; [debug line = 301:52@871:28@927:2] [debug variable = config_t<config1>.data.V]
  call void @llvm.dbg.value(metadata !{i8* %config_ch_data_V}, i64 0, metadata !4411), !dbg !4414 ; [debug line = 194:48@304:9@871:28@927:2] [debug variable = config_t<config1>.data.V]
  %p_Val2_s = call i8 @_ssdm_op_Read.ap_fifo.i8P(i8* %config_ch_data_V), !dbg !4417 ; [#uses=2 type=i8] [debug line = 1150:93@943:16@314:16@871:28@927:2]
  call void @llvm.dbg.value(metadata !{i8 %p_Val2_s}, i64 0, metadata !4425), !dbg !4417 ; [debug line = 1150:93@943:16@314:16@871:28@927:2] [debug variable = __Val2__]
  call void @llvm.dbg.value(metadata !{i8* %config_ch_data_V}, i64 0, metadata !4426), !dbg !4429 ; [debug line = 267:52@872:26@927:2] [debug variable = config_t<config1>.data.V]
  %p_Result_s = call i1 @_ssdm_op_PartSelect.i1.i8.i32.i32(i8 %p_Val2_s, i32 0, i32 0), !dbg !4431 ; [#uses=3 type=i1] [debug line = 1150:95@943:16@274:16@872:26@927:2]
  %p_Result_s_32 = zext i1 %p_Result_s to i8, !dbg !4431 ; [#uses=1 type=i8] [debug line = 1150:95@943:16@274:16@872:26@927:2]
  call void @llvm.dbg.value(metadata !{i8 %p_Result_s_32}, i64 0, metadata !4435), !dbg !4431 ; [debug line = 1150:95@943:16@274:16@872:26@927:2] [debug variable = __Result__]
  %tmp = call i1 @_ssdm_op_PartSelect.i1.i8.i32.i32(i8 %p_Val2_s, i32 1, i32 1) ; [#uses=1 type=i1]
  %tmp_9 = or i1 %tmp, %p_Result_s                ; [#uses=1 type=i1]
  %tmp_1 = call i2 @_ssdm_op_BitConcatenate.i2.i1.i1(i1 %p_Result_s, i1 %tmp_9) ; [#uses=1 type=i2]
  %tmp_s = icmp eq i2 %tmp_1, 0, !dbg !4436       ; [#uses=1 type=i1] [debug line = 874:5@927:2]
  br i1 %tmp_s, label %_ZN3hls8fft_coreI7config1Lc9ELc24E8ap_fixedILi16ELi1EL9ap_q_mode5EL9ap_o_mode3ELi0EES2_ILi24ELi16ELS3_5ELS4_3ELi0EELi512ELc1ELNS_6ip_fft4typeE0EEEvPSt7complexIT2_EPS9_IT3_EPNS7_8status_tIT_EEPNS7_8config_tISH_EE.exit, label %.preheader, !dbg !4436 ; [debug line = 874:5@927:2]

.preheader:                                       ; preds = %0, %_ZN3hls6ip_fft8config_tI7config1E6getSchEj.exit.i
  %i_i = phi i32 [ %i, %0 ], [ 0, %_ZN3hls6ip_fft8config_tI7config1E6getSchEj.exit.i ] ; [#uses=2 type=i32]
  %exitcond = icmp eq i32 %i_i, 512, !dbg !4437   ; [#uses=1 type=i1] [debug line = 875:23@927:2]
  %empty = call i32 (...)* @_ssdm_op_SpecLoopTripCount(i64 512, i64 512, i64 512) ; [#uses=0 type=i32]
  %i = add nsw i32 %i_i, 1, !dbg !4439            ; [#uses=1 type=i32] [debug line = 875:41@927:2]
  br i1 %exitcond, label %_ZN3hls8fft_coreI7config1Lc9ELc24E8ap_fixedILi16ELi1EL9ap_q_mode5EL9ap_o_mode3ELi0EES2_ILi24ELi16ELS3_5ELS4_3ELi0EELi512ELc1ELNS_6ip_fft4typeE0EEEvPSt7complexIT2_EPS9_IT3_EPNS7_8status_tIT_EEPNS7_8config_tISH_EE.exit, label %0, !dbg !4437 ; [debug line = 875:23@927:2]

; <label>:0                                       ; preds = %.preheader
  %xn_read = call i32 @_ssdm_op_Read.ap_fifo.volatile.i32P(i32* %xn), !dbg !4440 ; [#uses=2 type=i32] [debug line = 296:62@296:63@259:17@877:13@927:2]
  %tmp_3 = call i9 @_ssdm_op_PartSelect.i9.i32.i32.i32(i32 %xn_read, i32 7, i32 15), !dbg !4453 ; [#uses=1 type=i9] [debug line = 680:17@296:62@296:63@259:17@877:13@927:2]
  %tmp_4 = sext i9 %tmp_3 to i24, !dbg !4453      ; [#uses=1 type=i24] [debug line = 680:17@296:62@296:63@259:17@877:13@927:2]
  %tmp_6 = call i9 @_ssdm_op_PartSelect.i9.i32.i32.i32(i32 %xn_read, i32 23, i32 31), !dbg !4459 ; [#uses=1 type=i9] [debug line = 680:17@296:62@296:63@260:17@877:13@927:2]
  %tmp_7 = call i33 @_ssdm_op_BitConcatenate.i33.i9.i24(i9 %tmp_6, i24 %tmp_4) ; [#uses=1 type=i33]
  %xk_M_imag_V_addr101516_part_s = sext i33 %tmp_7 to i48, !dbg !4463 ; [#uses=1 type=i48] [debug line = 382:9@260:17@877:13@927:2]
  call void @_ssdm_op_Write.ap_fifo.volatile.i48P(i48* %xk, i48 %xk_M_imag_V_addr101516_part_s), !dbg !4463 ; [debug line = 382:9@260:17@877:13@927:2]
  call void @llvm.dbg.value(metadata !{i32 %i}, i64 0, metadata !4466), !dbg !4439 ; [debug line = 875:41@927:2] [debug variable = i]
  br label %.preheader, !dbg !4439                ; [debug line = 875:41@927:2]

_ZN3hls8fft_coreI7config1Lc9ELc24E8ap_fixedILi16ELi1EL9ap_q_mode5EL9ap_o_mode3ELi0EES2_ILi24ELi16ELS3_5ELS4_3ELi0EELi512ELc1ELNS_6ip_fft4typeE0EEEvPSt7complexIT2_EPS9_IT3_EPNS7_8status_tIT_EEPNS7_8config_tISH_EE.exit: ; preds = %.preheader, %_ZN3hls6ip_fft8config_tI7config1E6getSchEj.exit.i
  call void @llvm.dbg.value(metadata !{i8* %config_ch_data_V}, i64 0, metadata !4426), !dbg !4467 ; [debug line = 267:52@880:20@927:2] [debug variable = config_t<config1>.data.V]
  call void @llvm.dbg.value(metadata !{i8 %p_Val2_s}, i64 0, metadata !4425), !dbg !4469 ; [debug line = 1150:93@943:16@274:16@880:20@927:2] [debug variable = __Val2__]
  call void @llvm.dbg.value(metadata !{i8 %p_Result_s_32}, i64 0, metadata !4435), !dbg !4472 ; [debug line = 1150:95@943:16@274:16@880:20@927:2] [debug variable = __Result__]
  call void @_ssdm_op_Write.ap_fifo.i8P(i8* %status_data_V, i8 %p_Result_s_32), !dbg !4473 ; [debug line = 277:10@880:20@927:2]
  ret void, !dbg !4474                            ; [debug line = 938:1]
}

; [#uses=1]
define weak void @_ssdm_op_Write.axis.volatile.i24P.i24P(i24*, i24*, i24, i24) {
entry:
  store i24 %2, i24* %0
  store i24 %3, i24* %1
  ret void
}

; [#uses=2]
define weak void @_ssdm_op_Write.ap_fifo.volatile.i48P(i48*, i48) {
entry:
  %empty = call i48 @_autotb_FifoWrite_i48(i48* %0, i48 %1) ; [#uses=0 type=i48]
  ret void
}

; [#uses=2]
define weak void @_ssdm_op_Write.ap_fifo.volatile.i32P(i32*, i32) {
entry:
  %empty = call i32 @_autotb_FifoWrite_i32(i32* %0, i32 %1) ; [#uses=0 type=i32]
  ret void
}

; [#uses=2]
define weak void @_ssdm_op_Write.ap_fifo.volatile.i24P(i24*, i24) {
entry:
  %empty = call i24 @_autotb_FifoWrite_i24(i24* %0, i24 %1) ; [#uses=0 type=i24]
  ret void
}

; [#uses=3]
define weak void @_ssdm_op_Write.ap_fifo.i8P(i8*, i8) {
entry:
  %empty = call i8 @_autotb_FifoWrite_i8(i8* %0, i8 %1) ; [#uses=0 type=i8]
  ret void
}

; [#uses=1]
define weak void @_ssdm_op_Write.ap_fifo.i16P(i16*, i16) {
entry:
  %empty = call i16 @_autotb_FifoWrite_i16(i16* %0, i16 %1) ; [#uses=0 type=i16]
  ret void
}

; [#uses=1]
define weak void @_ssdm_op_SpecTopModule(...) {
entry:
  ret void
}

; [#uses=3]
define weak i32 @_ssdm_op_SpecRegionEnd(...) {
entry:
  ret i32 0
}

; [#uses=3]
define weak i32 @_ssdm_op_SpecRegionBegin(...) {
entry:
  ret i32 0
}

; [#uses=3]
define weak void @_ssdm_op_SpecPipeline(...) nounwind {
entry:
  ret void
}

; [#uses=7]
define weak i32 @_ssdm_op_SpecLoopTripCount(...) {
entry:
  ret i32 0
}

; [#uses=2]
define weak void @_ssdm_op_SpecKeepValue(...) nounwind {
entry:
  ret void
}

; [#uses=38]
define weak void @_ssdm_op_SpecInterface(...) nounwind {
entry:
  ret void
}

; [#uses=2]
define weak void @_ssdm_op_SpecIPCore(...) {
entry:
  ret void
}

; [#uses=2]
define weak void @_ssdm_op_SpecDataflowPipeline(...) nounwind {
entry:
  ret void
}

; [#uses=10]
define weak i32 @_ssdm_op_SpecChannel(...) {
entry:
  ret i32 0
}

; [#uses=4]
define weak void @_ssdm_op_SpecBitsMap(...) {
entry:
  ret void
}

; [#uses=1]
define weak i32 @_ssdm_op_Read.axis.volatile.i32P(i32*) {
entry:
  %empty = load i32* %0                           ; [#uses=1 type=i32]
  ret i32 %empty
}

; [#uses=2]
define weak i48 @_ssdm_op_Read.ap_fifo.volatile.i48P(i48*) {
entry:
  %empty = call i48 @_autotb_FifoRead_i48(i48* %0) ; [#uses=1 type=i48]
  ret i48 %empty
}

; [#uses=2]
define weak i32 @_ssdm_op_Read.ap_fifo.volatile.i32P(i32*) {
entry:
  %empty = call i32 @_autotb_FifoRead_i32(i32* %0) ; [#uses=1 type=i32]
  ret i32 %empty
}

; [#uses=2]
define weak i24 @_ssdm_op_Read.ap_fifo.volatile.i24P(i24*) {
entry:
  %empty = call i24 @_autotb_FifoRead_i24(i24* %0) ; [#uses=1 type=i24]
  ret i24 %empty
}

; [#uses=1]
define weak i8 @_ssdm_op_Read.ap_fifo.i8P(i8*) {
entry:
  %empty = call i8 @_autotb_FifoRead_i8(i8* %0)   ; [#uses=1 type=i8]
  ret i8 %empty
}

; [#uses=1]
define weak i16 @_ssdm_op_Read.ap_fifo.i16P(i16*) {
entry:
  %empty = call i16 @_autotb_FifoRead_i16(i16* %0) ; [#uses=1 type=i16]
  ret i16 %empty
}

; [#uses=0]
define weak i16 @_ssdm_op_PartSet.i16.i16.i9.i32.i32(i16, i9, i32, i32) nounwind readnone {
entry:
  %empty = call i16 @llvm.part.set.i16.i9(i16 %0, i9 %1, i32 %2, i32 %3) ; [#uses=1 type=i16]
  ret i16 %empty
}

; [#uses=2]
define weak i9 @_ssdm_op_PartSelect.i9.i32.i32.i32(i32, i32, i32) nounwind readnone {
entry:
  %empty = call i32 @llvm.part.select.i32(i32 %0, i32 %1, i32 %2) ; [#uses=1 type=i32]
  %empty_33 = trunc i32 %empty to i9              ; [#uses=1 type=i9]
  ret i9 %empty_33
}

; [#uses=2]
define weak i9 @_ssdm_op_PartSelect.i9.i24.i32.i32(i24, i32, i32) nounwind readnone {
entry:
  %empty = call i24 @llvm.part.select.i24(i24 %0, i32 %1, i32 %2) ; [#uses=1 type=i24]
  %empty_34 = trunc i24 %empty to i9              ; [#uses=1 type=i9]
  ret i9 %empty_34
}

; [#uses=1]
define weak i9 @_ssdm_op_PartSelect.i9.i10.i32.i32(i10, i32, i32) nounwind readnone {
entry:
  %empty = call i10 @llvm.part.select.i10(i10 %0, i32 %1, i32 %2) ; [#uses=1 type=i10]
  %empty_35 = trunc i10 %empty to i9              ; [#uses=1 type=i9]
  ret i9 %empty_35
}

; [#uses=1]
define weak i24 @_ssdm_op_PartSelect.i24.i48.i32.i32(i48, i32, i32) nounwind readnone {
entry:
  %empty = call i48 @llvm.part.select.i48(i48 %0, i32 %1, i32 %2) ; [#uses=1 type=i48]
  %empty_36 = trunc i48 %empty to i24             ; [#uses=1 type=i24]
  ret i24 %empty_36
}

; [#uses=2]
define weak i24 @_ssdm_op_PartSelect.i24.i32.i32.i32(i32, i32, i32) nounwind readnone {
entry:
  %empty = call i32 @llvm.part.select.i32(i32 %0, i32 %1, i32 %2) ; [#uses=1 type=i32]
  %empty_37 = trunc i32 %empty to i24             ; [#uses=1 type=i24]
  ret i24 %empty_37
}

; [#uses=2]
define weak i14 @_ssdm_op_PartSelect.i14.i48.i32.i32(i48, i32, i32) nounwind readnone {
entry:
  %empty = call i48 @llvm.part.select.i48(i48 %0, i32 %1, i32 %2) ; [#uses=1 type=i48]
  %empty_38 = trunc i48 %empty to i14             ; [#uses=1 type=i14]
  ret i14 %empty_38
}

; [#uses=2]
define weak i14 @_ssdm_op_PartSelect.i14.i32.i32.i32(i32, i32, i32) nounwind readnone {
entry:
  %empty = call i32 @llvm.part.select.i32(i32 %0, i32 %1, i32 %2) ; [#uses=1 type=i32]
  %empty_39 = trunc i32 %empty to i14             ; [#uses=1 type=i14]
  ret i14 %empty_39
}

; [#uses=2]
define weak i1 @_ssdm_op_PartSelect.i1.i8.i32.i32(i8, i32, i32) nounwind readnone {
entry:
  %empty = call i8 @llvm.part.select.i8(i8 %0, i32 %1, i32 %2) ; [#uses=1 type=i8]
  %empty_40 = trunc i8 %empty to i1               ; [#uses=1 type=i1]
  ret i1 %empty_40
}

; [#uses=2]
define weak i1 @_ssdm_op_PartSelect.i1.i16.i32.i32(i16, i32, i32) nounwind readnone {
entry:
  %empty = call i16 @llvm.part.select.i16(i16 %0, i32 %1, i32 %2) ; [#uses=1 type=i16]
  %empty_41 = trunc i16 %empty to i1              ; [#uses=1 type=i1]
  ret i1 %empty_41
}

; [#uses=0]
declare i16 @_ssdm_op_HSub(...)

; [#uses=0]
declare i16 @_ssdm_op_HMul(...)

; [#uses=0]
declare i16 @_ssdm_op_HDiv(...)

; [#uses=0]
declare i16 @_ssdm_op_HAdd(...)

; [#uses=0]
define weak i8 @_ssdm_op_BitSet.i8.i8.i32.i1(i8, i32, i1) nounwind readnone {
entry:
  %empty = icmp ne i1 %2, false                   ; [#uses=1 type=i1]
  %empty_42 = zext i1 %empty to i8                ; [#uses=1 type=i8]
  %empty_43 = trunc i32 %1 to i8                  ; [#uses=2 type=i8]
  %empty_44 = shl i8 %empty_42, %empty_43         ; [#uses=1 type=i8]
  %empty_45 = shl i8 1, %empty_43                 ; [#uses=1 type=i8]
  %empty_46 = xor i8 %empty_45, -1                ; [#uses=1 type=i8]
  %empty_47 = and i8 %empty_46, %0                ; [#uses=1 type=i8]
  %empty_48 = or i8 %empty_44, %empty_47          ; [#uses=1 type=i8]
  ret i8 %empty_48
}

; [#uses=2]
define weak i1 @_ssdm_op_BitSelect.i1.i48.i32(i48, i32) nounwind readnone {
entry:
  %empty = zext i32 %1 to i48                     ; [#uses=1 type=i48]
  %empty_49 = shl i48 1, %empty                   ; [#uses=1 type=i48]
  %empty_50 = and i48 %0, %empty_49               ; [#uses=1 type=i48]
  %empty_51 = icmp ne i48 %empty_50, 0            ; [#uses=1 type=i1]
  ret i1 %empty_51
}

; [#uses=1]
define weak i38 @_ssdm_op_BitConcatenate.i38.i14.i24(i14, i24) nounwind readnone {
entry:
  %empty = zext i14 %0 to i38                     ; [#uses=1 type=i38]
  %empty_52 = zext i24 %1 to i38                  ; [#uses=1 type=i38]
  %empty_53 = shl i38 %empty, 24                  ; [#uses=1 type=i38]
  %empty_54 = or i38 %empty_53, %empty_52         ; [#uses=1 type=i38]
  ret i38 %empty_54
}

; [#uses=1]
define weak i33 @_ssdm_op_BitConcatenate.i33.i9.i24(i9, i24) nounwind readnone {
entry:
  %empty = zext i9 %0 to i33                      ; [#uses=1 type=i33]
  %empty_55 = zext i24 %1 to i33                  ; [#uses=1 type=i33]
  %empty_56 = shl i33 %empty, 24                  ; [#uses=1 type=i33]
  %empty_57 = or i33 %empty_56, %empty_55         ; [#uses=1 type=i33]
  ret i33 %empty_57
}

; [#uses=1]
define weak i32 @_ssdm_op_BitConcatenate.i32.i9.i7.i9.i7(i9, i7, i9, i7) nounwind readnone {
entry:
  %empty = zext i9 %2 to i16                      ; [#uses=1 type=i16]
  %empty_58 = zext i7 %3 to i16                   ; [#uses=1 type=i16]
  %empty_59 = shl i16 %empty, 7                   ; [#uses=1 type=i16]
  %empty_60 = or i16 %empty_59, %empty_58         ; [#uses=1 type=i16]
  %empty_61 = zext i7 %1 to i23                   ; [#uses=1 type=i23]
  %empty_62 = zext i16 %empty_60 to i23           ; [#uses=1 type=i23]
  %empty_63 = shl i23 %empty_61, 16               ; [#uses=1 type=i23]
  %empty_64 = or i23 %empty_63, %empty_62         ; [#uses=1 type=i23]
  %empty_65 = zext i9 %0 to i32                   ; [#uses=1 type=i32]
  %empty_66 = zext i23 %empty_64 to i32           ; [#uses=1 type=i32]
  %empty_67 = shl i32 %empty_65, 23               ; [#uses=1 type=i32]
  %empty_68 = or i32 %empty_67, %empty_66         ; [#uses=1 type=i32]
  ret i32 %empty_68
}

; [#uses=2]
define weak i2 @_ssdm_op_BitConcatenate.i2.i1.i1(i1, i1) nounwind readnone {
entry:
  %empty = zext i1 %0 to i2                       ; [#uses=1 type=i2]
  %empty_69 = zext i1 %1 to i2                    ; [#uses=1 type=i2]
  %empty_70 = shl i2 %empty, 1                    ; [#uses=1 type=i2]
  %empty_71 = or i2 %empty_70, %empty_69          ; [#uses=1 type=i2]
  ret i2 %empty_71
}

; [#uses=1]
declare i8 @_autotb_FifoWrite_i8(i8*, i8)

; [#uses=1]
declare i48 @_autotb_FifoWrite_i48(i48*, i48)

; [#uses=1]
declare i32 @_autotb_FifoWrite_i32(i32*, i32)

; [#uses=1]
declare i24 @_autotb_FifoWrite_i24(i24*, i24)

; [#uses=1]
declare i16 @_autotb_FifoWrite_i16(i16*, i16)

; [#uses=1]
declare i8 @_autotb_FifoRead_i8(i8*)

; [#uses=1]
declare i48 @_autotb_FifoRead_i48(i48*)

; [#uses=1]
declare i32 @_autotb_FifoRead_i32(i32*)

; [#uses=1]
declare i24 @_autotb_FifoRead_i24(i24*)

; [#uses=1]
declare i16 @_autotb_FifoRead_i16(i16*)

; [#uses=1]
declare void @_GLOBAL__I_a() nounwind

; [#uses=1]
define internal fastcc void @pyrconstuct_top_Loop_5_proc(i48* %ifftPyrOut, i24* %pyrFilOut_V_M_real_V, i24* %pyrFilOut_V_M_imag_V) {
newFuncRoot:
  call void (...)* @_ssdm_op_SpecInterface(i24* %pyrFilOut_V_M_imag_V, i24* %pyrFilOut_V_M_real_V, [5 x i8]* @p_str274, i32 0, i32 0, i32 0, i32 1520, [1 x i8]* @p_str275, [1 x i8]* @p_str275, [1 x i8]* @p_str275, [1 x i8]* @p_str275)
  call void (...)* @_ssdm_op_SpecInterface(i48* %ifftPyrOut, [8 x i8]* @ap_fifo_str, i32 0, i32 0, i32 0, i32 0, [1 x i8]* @p_str, [1 x i8]* @p_str, [1 x i8]* @p_str, [1 x i8]* @p_str)
  br label %0, !dbg !4475                         ; [debug line = 269:13]

.exitStub:                                        ; preds = %0
  ret void

; <label>:0                                       ; preds = %"ap_fixed_base<24, 11, true, 5, 3, 0>.exit", %newFuncRoot
  %i7 = phi i10 [ 0, %newFuncRoot ], [ %i, %"ap_fixed_base<24, 11, true, 5, 3, 0>.exit" ] ; [#uses=2 type=i10]
  %exitcond = icmp eq i10 %i7, -512, !dbg !4475   ; [#uses=1 type=i1] [debug line = 269:13]
  %i = add i10 %i7, 1, !dbg !4477                 ; [#uses=1 type=i10] [debug line = 269:22]
  br i1 %exitcond, label %.exitStub, label %"ap_fixed_base<24, 11, true, 5, 3, 0>.exit", !dbg !4475 ; [debug line = 269:13]

"ap_fixed_base<24, 11, true, 5, 3, 0>.exit":      ; preds = %0
  %empty = call i32 (...)* @_ssdm_op_SpecLoopTripCount(i64 512, i64 512, i64 512) ; [#uses=0 type=i32]
  %tmp_s = call i32 (...)* @_ssdm_op_SpecRegionBegin([12 x i8]* @p_str277), !dbg !4478 ; [#uses=1 type=i32] [debug line = 269:28]
  call void (...)* @_ssdm_op_SpecPipeline(i32 1, i32 1, i32 1, i32 0, [1 x i8]* @p_str275) nounwind, !dbg !4480 ; [debug line = 270:1]
  %ifftPyrOut_read = call i48 @_ssdm_op_Read.ap_fifo.volatile.i48P(i48* %ifftPyrOut), !dbg !4481 ; [#uses=4 type=i48] [debug line = 1542:14@272:17]
  %tmp_9 = call i14 @_ssdm_op_PartSelect.i14.i48.i32.i32(i48 %ifftPyrOut_read, i32 10, i32 23), !dbg !4485 ; [#uses=1 type=i14] [debug line = 680:17@333:59@333:60@272:17]
  %p_Val2_2_cast = sext i14 %tmp_9 to i15, !dbg !4495 ; [#uses=1 type=i15] [debug line = 687:0@333:59@333:60@272:17]
  %tmp = call i1 @_ssdm_op_BitSelect.i1.i48.i32(i48 %ifftPyrOut_read, i32 9), !dbg !4495 ; [#uses=1 type=i1] [debug line = 687:0@333:59@333:60@272:17]
  %tmp_31_cast = zext i1 %tmp to i15, !dbg !4498  ; [#uses=1 type=i15] [debug line = 597:95@695:25@333:59@333:60@272:17]
  %p_Val2_s = add i15 %tmp_31_cast, %p_Val2_2_cast, !dbg !4503 ; [#uses=1 type=i15] [debug line = 610:9@695:25@333:59@333:60@272:17]
  call void @llvm.dbg.value(metadata !{i15 %p_Val2_s}, i64 0, metadata !4504) nounwind, !dbg !4506 ; [debug line = 612:100@695:25@333:59@333:60@272:17] [debug variable = __Val2__]
  %tmp_1 = call i14 @_ssdm_op_PartSelect.i14.i48.i32.i32(i48 %ifftPyrOut_read, i32 34, i32 47), !dbg !4507 ; [#uses=1 type=i14] [debug line = 680:17@333:59@333:60@273:17]
  %p_Val2_4_cast = sext i14 %tmp_1 to i15, !dbg !4511 ; [#uses=1 type=i15] [debug line = 687:0@333:59@333:60@273:17]
  %tmp_2 = call i1 @_ssdm_op_BitSelect.i1.i48.i32(i48 %ifftPyrOut_read, i32 33), !dbg !4511 ; [#uses=1 type=i1] [debug line = 687:0@333:59@333:60@273:17]
  %tmp_34_cast = zext i1 %tmp_2 to i15, !dbg !4512 ; [#uses=1 type=i15] [debug line = 597:95@695:25@333:59@333:60@273:17]
  %p_Val2_2 = add i15 %tmp_34_cast, %p_Val2_4_cast, !dbg !4514 ; [#uses=1 type=i15] [debug line = 610:9@695:25@333:59@333:60@273:17]
  call void @llvm.dbg.value(metadata !{i15 %p_Val2_2}, i64 0, metadata !4515) nounwind, !dbg !4516 ; [debug line = 612:100@695:25@333:59@333:60@273:17] [debug variable = __Val2__]
  call void @llvm.dbg.value(metadata !{i24* %pyrFilOut_V_M_real_V}, i64 0, metadata !4517), !dbg !4522 ; [debug line = 144:48@274:4] [debug variable = stream<std::complex<ap_fixed<17, 6, 0, 3, 0> > >.V._M_real.V]
  call void @llvm.dbg.value(metadata !{i24* %pyrFilOut_V_M_imag_V}, i64 0, metadata !4524), !dbg !4522 ; [debug line = 144:48@274:4] [debug variable = stream<std::complex<ap_fixed<17, 6, 0, 3, 0> > >.V._M_imag.V]
  call void @llvm.dbg.value(metadata !{i15 %p_Val2_s}, i64 0, metadata !4525), !dbg !4528 ; [debug line = 145:31@274:4] [debug variable = tmp._M_real.V]
  call void @llvm.dbg.value(metadata !{i15 %p_Val2_2}, i64 0, metadata !4529), !dbg !4528 ; [debug line = 145:31@274:4] [debug variable = tmp._M_imag.V]
  %cast = sext i15 %p_Val2_s to i24               ; [#uses=1 type=i24]
  %cast5 = sext i15 %p_Val2_2 to i24              ; [#uses=1 type=i24]
  call void @_ssdm_op_Write.axis.volatile.i24P.i24P(i24* %pyrFilOut_V_M_real_V, i24* %pyrFilOut_V_M_imag_V, i24 %cast, i24 %cast5), !dbg !4530 ; [debug line = 146:9@274:4]
  %empty_72 = call i32 (...)* @_ssdm_op_SpecRegionEnd([12 x i8]* @p_str277, i32 %tmp_s), !dbg !4531 ; [#uses=0 type=i32] [debug line = 275:3]
  call void @llvm.dbg.value(metadata !{i10 %i}, i64 0, metadata !4532), !dbg !4477 ; [debug line = 269:22] [debug variable = i]
  br label %0, !dbg !4477                         ; [debug line = 269:22]
}

; [#uses=1]
define internal fastcc void @pyrconstuct_top_Loop_4_proc(i24* %fftPyrOut_M_real_V, i24* %fftPyrOut_M_imag_V, i32* %imgInTmp2) {
newFuncRoot:
  call void (...)* @_ssdm_op_SpecInterface(i32* %imgInTmp2, [8 x i8]* @ap_fifo_str, i32 0, i32 0, i32 0, i32 0, [1 x i8]* @p_str, [1 x i8]* @p_str, [1 x i8]* @p_str, [1 x i8]* @p_str)
  call void (...)* @_ssdm_op_SpecInterface(i24* %fftPyrOut_M_imag_V, [8 x i8]* @ap_fifo_str, i32 0, i32 0, i32 0, i32 0, [1 x i8]* @p_str, [1 x i8]* @p_str, [1 x i8]* @p_str, [1 x i8]* @p_str)
  call void (...)* @_ssdm_op_SpecInterface(i24* %fftPyrOut_M_real_V, [8 x i8]* @ap_fifo_str, i32 0, i32 0, i32 0, i32 0, [1 x i8]* @p_str, [1 x i8]* @p_str, [1 x i8]* @p_str, [1 x i8]* @p_str)
  br label %0

.exitStub:                                        ; preds = %0
  ret void

; <label>:0                                       ; preds = %._crit_edge, %newFuncRoot
  %i6 = phi i10 [ 0, %newFuncRoot ], [ %i, %._crit_edge ] ; [#uses=2 type=i10]
  %exitcond2 = icmp eq i10 %i6, -512, !dbg !4533  ; [#uses=1 type=i1] [debug line = 237:14]
  %i = add i10 %i6, 1, !dbg !4535                 ; [#uses=1 type=i10] [debug line = 237:23]
  br i1 %exitcond2, label %.exitStub, label %._crit_edge, !dbg !4533 ; [debug line = 237:14]

._crit_edge:                                      ; preds = %0
  %empty = call i32 (...)* @_ssdm_op_SpecLoopTripCount(i64 512, i64 512, i64 512) ; [#uses=0 type=i32]
  %tmp_s = call i32 (...)* @_ssdm_op_SpecRegionBegin([12 x i8]* @p_str276), !dbg !4536 ; [#uses=1 type=i32] [debug line = 237:29]
  call void (...)* @_ssdm_op_SpecPipeline(i32 1, i32 1, i32 1, i32 0, [1 x i8]* @p_str275) nounwind, !dbg !4538 ; [debug line = 238:1]
  %fftPyrOut_M_real_V_read = call i24 @_ssdm_op_Read.ap_fifo.volatile.i24P(i24* %fftPyrOut_M_real_V), !dbg !4539 ; [#uses=1 type=i24] [debug line = 1542:14@241:18]
  %tmp = call i9 @_ssdm_op_PartSelect.i9.i24.i32.i32(i24 %fftPyrOut_M_real_V_read, i32 1, i32 9) ; [#uses=1 type=i9]
  %fftPyrOut_M_imag_V_read = call i24 @_ssdm_op_Read.ap_fifo.volatile.i24P(i24* %fftPyrOut_M_imag_V), !dbg !4544 ; [#uses=1 type=i24] [debug line = 1542:14@242:18]
  %tmp_1 = call i9 @_ssdm_op_PartSelect.i9.i24.i32.i32(i24 %fftPyrOut_M_imag_V_read, i32 1, i32 9) ; [#uses=1 type=i9]
  %imgInTmp2_1_addr_23940_part_se = call i32 @_ssdm_op_BitConcatenate.i32.i9.i7.i9.i7(i9 %tmp_1, i7 0, i9 %tmp, i7 0), !dbg !4546 ; [#uses=1 type=i32] [debug line = 382:9@121:12@244:4]
  call void @_ssdm_op_Write.ap_fifo.volatile.i32P(i32* %imgInTmp2, i32 %imgInTmp2_1_addr_23940_part_se), !dbg !4546 ; [debug line = 382:9@121:12@244:4]
  %empty_73 = call i32 (...)* @_ssdm_op_SpecRegionEnd([12 x i8]* @p_str276, i32 %tmp_s), !dbg !4553 ; [#uses=0 type=i32] [debug line = 245:3]
  call void @llvm.dbg.value(metadata !{i10 %i}, i64 0, metadata !4554), !dbg !4535 ; [debug line = 237:23] [debug variable = i]
  br label %0, !dbg !4535                         ; [debug line = 237:23]
}

; [#uses=1]
define internal fastcc void @pyrconstuct_top_Loop_3_proc([512 x i24]* nocapture %imgOutTmpBlockRam_M_real_V, [512 x i24]* nocapture %imgOutTmpBlockRam_M_imag_V, i24* %fftPyrOut_M_real_V, i24* %fftPyrOut_M_imag_V) {
newFuncRoot:
  call void (...)* @_ssdm_op_SpecInterface(i24* %fftPyrOut_M_imag_V, [8 x i8]* @ap_fifo_str, i32 0, i32 0, i32 0, i32 0, [1 x i8]* @p_str, [1 x i8]* @p_str, [1 x i8]* @p_str, [1 x i8]* @p_str)
  call void (...)* @_ssdm_op_SpecInterface(i24* %fftPyrOut_M_real_V, [8 x i8]* @ap_fifo_str, i32 0, i32 0, i32 0, i32 0, [1 x i8]* @p_str, [1 x i8]* @p_str, [1 x i8]* @p_str, [1 x i8]* @p_str)
  br label %"dummy_proc2<complex<ap_fixed<24, 16, 5, 3, 0> > >.exit"

"pyrbuild_top<complex<ap_fixed<24, 16, 5, 3, 0> > >.exit.exitStub": ; preds = %"dummy_proc2<complex<ap_fixed<24, 16, 5, 3, 0> > >.exit"
  ret void

"dummy_proc2<complex<ap_fixed<24, 16, 5, 3, 0> > >.exit": ; preds = %_ifconv, %newFuncRoot
  %l_0_i = phi i11 [ %l, %_ifconv ], [ 0, %newFuncRoot ] ; [#uses=2 type=i11]
  %idx = phi i32 [ %i_1, %_ifconv ], [ 0, %newFuncRoot ] ; [#uses=4 type=i32]
  %coefIdx_0_i = phi i11 [ %coefIdx, %_ifconv ], [ 0, %newFuncRoot ] ; [#uses=3 type=i11]
  %exitcond_i1 = icmp eq i11 %coefIdx_0_i, -528, !dbg !4555 ; [#uses=1 type=i1] [debug line = 104:21@198:2]
  %coefIdx = add i11 %coefIdx_0_i, 1, !dbg !4565  ; [#uses=1 type=i11] [debug line = 104:38@198:2]
  br i1 %exitcond_i1, label %"pyrbuild_top<complex<ap_fixed<24, 16, 5, 3, 0> > >.exit.exitStub", label %_ifconv, !dbg !4555 ; [debug line = 104:21@198:2]

_ifconv:                                          ; preds = %"dummy_proc2<complex<ap_fixed<24, 16, 5, 3, 0> > >.exit"
  call void @llvm.dbg.value(metadata !{i32 %idx}, i64 0, metadata !4566) nounwind, !dbg !4568 ; [debug line = 111:15@198:2] [debug variable = idx]
  %empty = call i32 (...)* @_ssdm_op_SpecLoopTripCount(i64 1520, i64 1520, i64 1520) ; [#uses=0 type=i32]
  %tmp = call i32 (...)* @_ssdm_op_SpecRegionBegin([12 x i8]* @p_str311), !dbg !4569 ; [#uses=1 type=i32] [debug line = 105:3@198:2]
  call void (...)* @_ssdm_op_SpecPipeline(i32 1, i32 1, i32 1, i32 0, [1 x i8]* @p_str275) nounwind, !dbg !4570 ; [debug line = 106:1@198:2]
  %tmp_2 = zext i11 %l_0_i to i64, !dbg !4571     ; [#uses=1 type=i64] [debug line = 107:24@198:2]
  %limits_addr = getelementptr [12 x i10]* @limits, i64 0, i64 %tmp_2, !dbg !4571 ; [#uses=1 type=i10*] [debug line = 107:24@198:2]
  %nlimit = load i10* %limits_addr, align 2, !dbg !4571 ; [#uses=2 type=i10] [debug line = 107:24@198:2]
  %nlimit_cast = zext i10 %nlimit to i32, !dbg !4571 ; [#uses=2 type=i32] [debug line = 107:24@198:2]
  call void @llvm.dbg.value(metadata !{i10 %nlimit}, i64 0, metadata !4572) nounwind, !dbg !4571 ; [debug line = 107:24@198:2] [debug variable = nlimit]
  %tmp_3 = call i9 @_ssdm_op_PartSelect.i9.i10.i32.i32(i10 %nlimit, i32 1, i32 9), !dbg !4573 ; [#uses=1 type=i9] [debug line = 108:25@198:2]
  %half = zext i9 %tmp_3 to i32, !dbg !4573       ; [#uses=1 type=i32] [debug line = 108:25@198:2]
  call void @llvm.dbg.value(metadata !{i32 %half}, i64 0, metadata !4574) nounwind, !dbg !4573 ; [debug line = 108:25@198:2] [debug variable = half]
  %tmp_5 = icmp slt i32 %idx, %half, !dbg !4575   ; [#uses=1 type=i1] [debug line = 111:3@198:2]
  %tmp_9 = add i32 %idx, 512, !dbg !4576          ; [#uses=1 type=i32] [debug line = 112:8@198:2]
  %idx_1 = sub i32 %tmp_9, %nlimit_cast, !dbg !4576 ; [#uses=1 type=i32] [debug line = 112:8@198:2]
  call void @llvm.dbg.value(metadata !{i32 %idx_1}, i64 0, metadata !4566) nounwind, !dbg !4576 ; [debug line = 112:8@198:2] [debug variable = idx]
  %idx_2 = select i1 %tmp_5, i32 %idx, i32 %idx_1 ; [#uses=1 type=i32]
  call void @llvm.dbg.value(metadata !{i32 %idx_2}, i64 0, metadata !4566) nounwind, !dbg !4568 ; [debug line = 111:15@198:2] [debug variable = idx]
  %tmp_4 = sext i32 %idx_2 to i64, !dbg !4577     ; [#uses=2 type=i64] [debug line = 113:3@198:2]
  %imgOutTmpBlockRam_M_real_V_ad = getelementptr [512 x i24]* %imgOutTmpBlockRam_M_real_V, i64 0, i64 %tmp_4, !dbg !4578 ; [#uses=1 type=i24*] [debug line = 382:9@121:12@113:3@198:2]
  %imgOutTmpBlockRam_M_real_V_lo = load i24* %imgOutTmpBlockRam_M_real_V_ad, align 8, !dbg !4578 ; [#uses=1 type=i24] [debug line = 382:9@121:12@113:3@198:2]
  %OP1_V_cast = sext i24 %imgOutTmpBlockRam_M_real_V_lo to i32, !dbg !4584 ; [#uses=1 type=i32] [debug line = 1293:9@118:19@198:2]
  %imgOutTmpBlockRam_M_imag_V_ad = getelementptr [512 x i24]* %imgOutTmpBlockRam_M_imag_V, i64 0, i64 %tmp_4, !dbg !4578 ; [#uses=1 type=i24*] [debug line = 382:9@121:12@113:3@198:2]
  %imgOutTmpBlockRam_M_imag_V_lo = load i24* %imgOutTmpBlockRam_M_imag_V_ad, align 4, !dbg !4578 ; [#uses=1 type=i24] [debug line = 382:9@121:12@113:3@198:2]
  %OP1_V_1_cast = sext i24 %imgOutTmpBlockRam_M_imag_V_lo to i32, !dbg !6758 ; [#uses=1 type=i32] [debug line = 1293:9@119:19@198:2]
  %tmp_6 = zext i11 %coefIdx_0_i to i64, !dbg !6757 ; [#uses=1 type=i64] [debug line = 118:19@198:2]
  %consFilters_V_addr = getelementptr [1520 x i9]* @consFilters_V, i64 0, i64 %tmp_6, !dbg !6760 ; [#uses=1 type=i9*] [debug line = 1295:9@118:19@198:2]
  %consFilters_V_load = load i9* %consFilters_V_addr, align 2, !dbg !6760 ; [#uses=1 type=i9] [debug line = 1295:9@118:19@198:2]
  %OP2_V_cast = zext i9 %consFilters_V_load to i32, !dbg !6760 ; [#uses=2 type=i32] [debug line = 1295:9@118:19@198:2]
  %p_Val2_1 = mul i32 %OP2_V_cast, %OP1_V_1_cast, !dbg !6761 ; [#uses=1 type=i32] [debug line = 1296:9@119:19@198:2]
  %p_Val2_s = mul i32 %OP2_V_cast, %OP1_V_cast, !dbg !6762 ; [#uses=1 type=i32] [debug line = 1296:9@118:19@198:2]
  call void @llvm.dbg.value(metadata !{i32 %p_Val2_s}, i64 0, metadata !6763) nounwind, !dbg !6775 ; [debug line = 673:0@333:59@333:60@118:19@198:2] [debug variable = __Val2__]
  %tmp_7 = call i24 @_ssdm_op_PartSelect.i24.i32.i32.i32(i32 %p_Val2_s, i32 8, i32 31), !dbg !6776 ; [#uses=1 type=i24] [debug line = 680:17@333:59@333:60@118:19@198:2]
  call void @llvm.dbg.value(metadata !{i32 %p_Val2_1}, i64 0, metadata !6778) nounwind, !dbg !6781 ; [debug line = 673:0@333:59@333:60@119:19@198:2] [debug variable = __Val2__]
  %tmp_8 = call i24 @_ssdm_op_PartSelect.i24.i32.i32.i32(i32 %p_Val2_1, i32 8, i32 31), !dbg !6782 ; [#uses=1 type=i24] [debug line = 680:17@333:59@333:60@119:19@198:2]
  call void @_ssdm_op_Write.ap_fifo.volatile.i24P(i24* %fftPyrOut_M_real_V, i24 %tmp_7), !dbg !6783 ; [debug line = 382:9@121:12@120:3@198:2]
  call void @_ssdm_op_Write.ap_fifo.volatile.i24P(i24* %fftPyrOut_M_imag_V, i24 %tmp_8), !dbg !6783 ; [debug line = 382:9@121:12@120:3@198:2]
  %i = add nsw i32 %idx, 1, !dbg !6786            ; [#uses=2 type=i32] [debug line = 122:3@198:2]
  call void @llvm.dbg.value(metadata !{i32 %i}, i64 0, metadata !6787) nounwind, !dbg !6786 ; [debug line = 122:3@198:2] [debug variable = i]
  %tmp_s = icmp eq i32 %nlimit_cast, %i, !dbg !6788 ; [#uses=2 type=i1] [debug line = 123:3@198:2]
  %tmp_17_cast = zext i1 %tmp_s to i11, !dbg !6788 ; [#uses=1 type=i11] [debug line = 123:3@198:2]
  %l = add i11 %l_0_i, %tmp_17_cast, !dbg !6788   ; [#uses=1 type=i11] [debug line = 123:3@198:2]
  call void @llvm.dbg.value(metadata !{i11 %l}, i64 0, metadata !6789) nounwind, !dbg !6788 ; [debug line = 123:3@198:2] [debug variable = l]
  %i_1 = select i1 %tmp_s, i32 0, i32 %i, !dbg !6790 ; [#uses=1 type=i32] [debug line = 124:3@198:2]
  call void @llvm.dbg.value(metadata !{i32 %i_1}, i64 0, metadata !6787) nounwind, !dbg !6790 ; [debug line = 124:3@198:2] [debug variable = i]
  %empty_74 = call i32 (...)* @_ssdm_op_SpecRegionEnd([12 x i8]* @p_str311, i32 %tmp), !dbg !6791 ; [#uses=0 type=i32] [debug line = 125:2@198:2]
  call void @llvm.dbg.value(metadata !{i11 %coefIdx}, i64 0, metadata !6792) nounwind, !dbg !4565 ; [debug line = 104:38@198:2] [debug variable = coefIdx]
  br label %"dummy_proc2<complex<ap_fixed<24, 16, 5, 3, 0> > >.exit", !dbg !4565 ; [debug line = 104:38@198:2]
}

; [#uses=1]
define internal fastcc void @pyrconstuct_top_Loop_2_proc(i48* %imgOutTmpFFTStream, [512 x i24]* nocapture %imgOutTmpBlockRam_M_real_V, [512 x i24]* nocapture %imgOutTmpBlockRam_M_imag_V) {
newFuncRoot:
  call void (...)* @_ssdm_op_SpecInterface(i48* %imgOutTmpFFTStream, [8 x i8]* @ap_fifo_str, i32 0, i32 0, i32 0, i32 0, [1 x i8]* @p_str, [1 x i8]* @p_str, [1 x i8]* @p_str, [1 x i8]* @p_str)
  br label %0, !dbg !6793                         ; [debug line = 144:13@196:2]

"dummy_proc2<complex<ap_fixed<24, 16, 5, 3, 0> > >.exit.exitStub": ; preds = %0
  ret void

; <label>:0                                       ; preds = %1, %newFuncRoot
  %i_0_i = phi i10 [ 0, %newFuncRoot ], [ %i, %1 ] ; [#uses=3 type=i10]
  %exitcond_i = icmp eq i10 %i_0_i, -512, !dbg !6793 ; [#uses=1 type=i1] [debug line = 144:13@196:2]
  %empty = call i32 (...)* @_ssdm_op_SpecLoopTripCount(i64 512, i64 512, i64 512) ; [#uses=0 type=i32]
  %i = add i10 %i_0_i, 1, !dbg !6800              ; [#uses=1 type=i10] [debug line = 144:20@196:2]
  br i1 %exitcond_i, label %"dummy_proc2<complex<ap_fixed<24, 16, 5, 3, 0> > >.exit.exitStub", label %1, !dbg !6793 ; [debug line = 144:13@196:2]

; <label>:1                                       ; preds = %0
  %tmp_1 = zext i10 %i_0_i to i64, !dbg !6801     ; [#uses=2 type=i64] [debug line = 145:3@196:2]
  %imgOutTmpFFTStream_read = call i48 @_ssdm_op_Read.ap_fifo.volatile.i48P(i48* %imgOutTmpFFTStream), !dbg !6802 ; [#uses=2 type=i48] [debug line = 382:9@121:12@145:3@196:2]
  %tmp = trunc i48 %imgOutTmpFFTStream_read to i24, !dbg !6802 ; [#uses=1 type=i24] [debug line = 382:9@121:12@145:3@196:2]
  %imgOutTmpBlockRam_M_real_V_ad = getelementptr [512 x i24]* %imgOutTmpBlockRam_M_real_V, i64 0, i64 %tmp_1, !dbg !6802 ; [#uses=1 type=i24*] [debug line = 382:9@121:12@145:3@196:2]
  store i24 %tmp, i24* %imgOutTmpBlockRam_M_real_V_ad, align 8, !dbg !6802 ; [debug line = 382:9@121:12@145:3@196:2]
  %imgOutTmpFFTStream_1_load_new = call i24 @_ssdm_op_PartSelect.i24.i48.i32.i32(i48 %imgOutTmpFFTStream_read, i32 24, i32 47), !dbg !6802 ; [#uses=1 type=i24] [debug line = 382:9@121:12@145:3@196:2]
  %imgOutTmpBlockRam_M_imag_V_ad = getelementptr [512 x i24]* %imgOutTmpBlockRam_M_imag_V, i64 0, i64 %tmp_1, !dbg !6802 ; [#uses=1 type=i24*] [debug line = 382:9@121:12@145:3@196:2]
  store i24 %imgOutTmpFFTStream_1_load_new, i24* %imgOutTmpBlockRam_M_imag_V_ad, align 4, !dbg !6802 ; [debug line = 382:9@121:12@145:3@196:2]
  call void @llvm.dbg.value(metadata !{i10 %i}, i64 0, metadata !6804) nounwind, !dbg !6800 ; [debug line = 144:20@196:2] [debug variable = i]
  br label %0, !dbg !6800                         ; [debug line = 144:20@196:2]
}

; [#uses=1]
define internal fastcc void @pyrconstuct_top_Loop_1_proc(i32* %imgIn, i32* %imgInTmp) {
newFuncRoot:
  call void (...)* @_ssdm_op_SpecInterface(i32* %imgIn, [5 x i8]* @p_str274, i32 0, i32 0, i32 0, i32 512, [1 x i8]* @p_str275, [1 x i8]* @p_str275, [1 x i8]* @p_str275, [1 x i8]* @p_str275)
  call void (...)* @_ssdm_op_SpecInterface(i32* %imgInTmp, [8 x i8]* @ap_fifo_str, i32 0, i32 0, i32 0, i32 0, [1 x i8]* @p_str, [1 x i8]* @p_str, [1 x i8]* @p_str, [1 x i8]* @p_str)
  br label %0

.exitStub:                                        ; preds = %0
  ret void

; <label>:0                                       ; preds = %1, %newFuncRoot
  %i = phi i10 [ 0, %newFuncRoot ], [ %i_1, %1 ]  ; [#uses=2 type=i10]
  %exitcond1 = icmp eq i10 %i, -512, !dbg !6805   ; [#uses=1 type=i1] [debug line = 189:13]
  %empty = call i32 (...)* @_ssdm_op_SpecLoopTripCount(i64 512, i64 512, i64 512) ; [#uses=0 type=i32]
  %i_1 = add i10 %i, 1, !dbg !6807                ; [#uses=1 type=i10] [debug line = 189:20]
  br i1 %exitcond1, label %.exitStub, label %1, !dbg !6805 ; [debug line = 189:13]

; <label>:1                                       ; preds = %0
  %imgIn_read = call i32 @_ssdm_op_Read.axis.volatile.i32P(i32* %imgIn), !dbg !6808 ; [#uses=1 type=i32] [debug line = 382:9@121:12@191:3]
  call void @_ssdm_op_Write.ap_fifo.volatile.i32P(i32* %imgInTmp, i32 %imgIn_read), !dbg !6808 ; [debug line = 382:9@121:12@191:3]
  call void @llvm.dbg.value(metadata !{i10 %i_1}, i64 0, metadata !6812), !dbg !6807 ; [debug line = 189:20] [debug variable = i]
  br label %0, !dbg !6807                         ; [debug line = 189:20]
}

; [#uses=1]
define internal fastcc void @pyrconstuct_top_Block_codeRepl20_proc(i8* %fft_config_data_V) {
newFuncRoot:
  call void (...)* @_ssdm_op_SpecInterface(i8* %fft_config_data_V, [8 x i8]* @ap_fifo_str, i32 0, i32 0, i32 0, i32 0, [1 x i8]* @p_str, [1 x i8]* @p_str, [1 x i8]* @p_str, [1 x i8]* @p_str)
  call void @llvm.dbg.declare(metadata !{i8* %fft_config_data_V}, metadata !6813), !dbg !6816 ; [debug line = 174:11] [debug variable = fft_config.data.V]
  call void @llvm.dbg.value(metadata !{i8* %fft_config_data_V}, i64 0, metadata !6813), !dbg !6817 ; [debug line = 948:84@265:9@186:2] [debug variable = fft_config.data.V]
  call void @_ssdm_op_Write.ap_fifo.i8P(i8* %fft_config_data_V, i8 1), !dbg !6825 ; [debug line = 948:236@265:9@186:2]
  ret void
}

; [#uses=1]
define internal fastcc void @pyrconstuct_top_Block__proc(i16* %fft_config2_data_V) {
newFuncRoot:
  call void (...)* @_ssdm_op_SpecInterface(i16* %fft_config2_data_V, [8 x i8]* @ap_fifo_str, i32 0, i32 0, i32 0, i32 0, [1 x i8]* @p_str, [1 x i8]* @p_str, [1 x i8]* @p_str, [1 x i8]* @p_str)
  call void @llvm.dbg.value(metadata !{i16* %fft_config2_data_V}, i64 0, metadata !2881), !dbg !6826 ; [debug line = 948:84@265:9@247:3] [debug variable = fft_config2.data.V]
  call void @_ssdm_op_Write.ap_fifo.i16P(i16* %fft_config2_data_V, i16 9), !dbg !6834 ; [debug line = 948:236@211:9@249:3]
  ret void
}

!hls.encrypted.func = !{}
!llvm.map.gv = !{!0}

!0 = metadata !{metadata !1, [1 x i32]* @llvm_global_ctors_0}
!1 = metadata !{metadata !2}
!2 = metadata !{i32 0, i32 31, metadata !3}
!3 = metadata !{metadata !4}
!4 = metadata !{metadata !"llvm.global_ctors.0", metadata !5, metadata !"", i32 0, i32 31}
!5 = metadata !{metadata !6}
!6 = metadata !{i32 0, i32 0, i32 1}
!7 = metadata !{i32 226, i32 1, metadata !8, null}
!8 = metadata !{i32 786443, metadata !9, i32 154, i32 11, metadata !10, i32 0} ; [ DW_TAG_lexical_block ]
!9 = metadata !{i32 786478, i32 0, metadata !10, metadata !"pyrconstuct_top", metadata !"pyrconstuct_top", metadata !"_Z15pyrconstuct_topPSt7complexI8ap_fixedILi16ELi1EL9ap_q_mode5EL9ap_o_mode3ELi0EEERN3hls6streamIS_IS0_ILi17ELi6ELS1_0ELS2_3ELi0EEEEEi", metadata !10, i32 149, metadata !11, i1 false, i1 true, i32 0, i32 0, null, i32 256, i1 false, null, null, null, metadata !37, i32 154} ; [ DW_TAG_subprogram ]
!10 = metadata !{i32 786473, metadata !"PyramidCon_x/pyramidbuild.cpp", metadata !"c:/Users/Peachy/Desktop/SeniorProj", null} ; [ DW_TAG_file_type ]
!11 = metadata !{i32 786453, i32 0, metadata !"", i32 0, i32 0, i64 0, i64 0, i64 0, i32 0, null, metadata !12, i32 0, i32 0} ; [ DW_TAG_subroutine_type ]
!12 = metadata !{null, metadata !13, metadata !1235, metadata !2677}
!13 = metadata !{i32 786447, null, metadata !"", null, i32 0, i64 64, i64 64, i64 0, i32 0, metadata !14} ; [ DW_TAG_pointer_type ]
!14 = metadata !{i32 786454, null, metadata !"cmpxDataIn", metadata !10, i32 79, i64 0, i64 0, i64 0, i32 0, metadata !15} ; [ DW_TAG_typedef ]
!15 = metadata !{i32 786434, metadata !16, metadata !"complex<ap_fixed<16, 1, 5, 3, 0> >", metadata !17, i32 121, i64 32, i64 16, i32 0, i32 0, null, metadata !18, i32 0, null, metadata !1233} ; [ DW_TAG_class_type ]
!16 = metadata !{i32 786489, null, metadata !"std", metadata !17, i32 48} ; [ DW_TAG_namespace ]
!17 = metadata !{i32 786473, metadata !"C:/Xilinx/Vivado_HLS/2015.4/win64/tools/clang/bin\5C..\5Clib\5Cclang\5C3.1/../../../include/c++/4.5.2\5Ccomplex", metadata !"c:/Users/Peachy/Desktop/SeniorProj", null} ; [ DW_TAG_file_type ]
!18 = metadata !{metadata !19, metadata !1196, metadata !1197, metadata !1201, metadata !1204, metadata !1209, metadata !1210, metadata !1211, metadata !1214, metadata !1215, metadata !1219, metadata !1220, metadata !1221, metadata !1222, metadata !1223, metadata !1229, metadata !1232}
!19 = metadata !{i32 786445, metadata !15, metadata !"_M_real", metadata !17, i32 221, i64 16, i64 16, i64 0, i32 1, metadata !20} ; [ DW_TAG_member ]
!20 = metadata !{i32 786434, null, metadata !"ap_fixed<16, 1, 5, 3, 0>", metadata !21, i32 287, i64 16, i64 16, i32 0, i32 0, null, metadata !22, i32 0, null, metadata !1195} ; [ DW_TAG_class_type ]
!21 = metadata !{i32 786473, metadata !"C:/Xilinx/Vivado_HLS/2015.4/common/technology/autopilot\5Cap_int.h", metadata !"c:/Users/Peachy/Desktop/SeniorProj", null} ; [ DW_TAG_file_type ]
!22 = metadata !{metadata !23, metadata !346, metadata !350, metadata !356, metadata !362, metadata !365, metadata !1135, metadata !1138, metadata !1141, metadata !1144, metadata !1147, metadata !1150, metadata !1153, metadata !1156, metadata !1159, metadata !1162, metadata !1165, metadata !1168, metadata !1171, metadata !1174, metadata !1177, metadata !1180, metadata !1184, metadata !1187, metadata !1191, metadata !1194}
!23 = metadata !{i32 786460, metadata !20, null, metadata !21, i32 0, i64 0, i64 0, i64 0, i32 0, metadata !24} ; [ DW_TAG_inheritance ]
!24 = metadata !{i32 786434, null, metadata !"ap_fixed_base<16, 1, true, 5, 3, 0>", metadata !25, i32 510, i64 16, i64 16, i32 0, i32 0, null, metadata !26, i32 0, null, metadata !340} ; [ DW_TAG_class_type ]
!25 = metadata !{i32 786473, metadata !"C:/Xilinx/Vivado_HLS/2015.4/common/technology/autopilot/ap_fixed_syn.h", metadata !"c:/Users/Peachy/Desktop/SeniorProj", null} ; [ DW_TAG_file_type ]
!26 = metadata !{metadata !27, metadata !44, metadata !48, metadata !51, metadata !54, metadata !83, metadata !89, metadata !92, metadata !96, metadata !100, metadata !104, metadata !108, metadata !112, metadata !115, metadata !119, metadata !123, metadata !127, metadata !132, metadata !137, metadata !142, metadata !145, metadata !150, metadata !154, metadata !157, metadata !160, metadata !163, metadata !167, metadata !170, metadata !174, metadata !177, metadata !180, metadata !183, metadata !187, metadata !190, metadata !193, metadata !196, metadata !199, metadata !202, metadata !205, metadata !206, metadata !207, metadata !210, metadata !213, metadata !216, metadata !219, metadata !222, metadata !223, metadata !224, metadata !227, metadata !230, metadata !233, metadata !236, metadata !237, metadata !240, metadata !243, metadata !244, metadata !247, metadata !248, metadata !251, metadata !255, metadata !256, metadata !259, metadata !262, metadata !265, metadata !268, metadata !269, metadata !270, metadata !273, metadata !276, metadata !277, metadata !278, metadata !281, metadata !282, metadata !283, metadata !284, metadata !285, metadata !286, metadata !290, metadata !293, metadata !294, metadata !295, metadata !298, metadata !301, metadata !305, metadata !306, metadata !309, metadata !310, metadata !313, metadata !316, metadata !317, metadata !318, metadata !319, metadata !320, metadata !323, metadata !326, metadata !327, metadata !337}
!27 = metadata !{i32 786460, metadata !24, null, metadata !25, i32 0, i64 0, i64 0, i64 0, i32 0, metadata !28} ; [ DW_TAG_inheritance ]
!28 = metadata !{i32 786434, null, metadata !"ssdm_int<16 + 1024 * 0, true>", metadata !29, i32 18, i64 16, i64 16, i32 0, i32 0, null, metadata !30, i32 0, null, metadata !39} ; [ DW_TAG_class_type ]
!29 = metadata !{i32 786473, metadata !"C:/Xilinx/Vivado_HLS/2015.4/common/technology/autopilot/etc/autopilot_dt.def", metadata !"c:/Users/Peachy/Desktop/SeniorProj", null} ; [ DW_TAG_file_type ]
!30 = metadata !{metadata !31, metadata !33}
!31 = metadata !{i32 786445, metadata !28, metadata !"V", metadata !29, i32 18, i64 16, i64 16, i64 0, i32 0, metadata !32} ; [ DW_TAG_member ]
!32 = metadata !{i32 786468, null, metadata !"int16", null, i32 0, i64 16, i64 16, i64 0, i32 0, i32 5} ; [ DW_TAG_base_type ]
!33 = metadata !{i32 786478, i32 0, metadata !28, metadata !"ssdm_int", metadata !"ssdm_int", metadata !"", metadata !29, i32 18, metadata !34, i1 false, i1 false, i32 0, i32 0, null, i32 256, i1 false, null, null, i32 0, metadata !37, i32 18} ; [ DW_TAG_subprogram ]
!34 = metadata !{i32 786453, i32 0, metadata !"", i32 0, i32 0, i64 0, i64 0, i64 0, i32 0, null, metadata !35, i32 0, i32 0} ; [ DW_TAG_subroutine_type ]
!35 = metadata !{null, metadata !36}
!36 = metadata !{i32 786447, i32 0, metadata !"", i32 0, i32 0, i64 64, i64 64, i64 0, i32 64, metadata !28} ; [ DW_TAG_pointer_type ]
!37 = metadata !{metadata !38}
!38 = metadata !{i32 786468}                      ; [ DW_TAG_base_type ]
!39 = metadata !{metadata !40, metadata !42}
!40 = metadata !{i32 786480, null, metadata !"_AP_N", metadata !41, i64 16, null, i32 0, i32 0} ; [ DW_TAG_template_value_parameter ]
!41 = metadata !{i32 786468, null, metadata !"int", null, i32 0, i64 32, i64 32, i64 0, i32 0, i32 5} ; [ DW_TAG_base_type ]
!42 = metadata !{i32 786480, null, metadata !"_AP_S", metadata !43, i64 1, null, i32 0, i32 0} ; [ DW_TAG_template_value_parameter ]
!43 = metadata !{i32 786468, null, metadata !"bool", null, i32 0, i64 8, i64 8, i64 0, i32 0, i32 2} ; [ DW_TAG_base_type ]
!44 = metadata !{i32 786478, i32 0, metadata !24, metadata !"overflow_adjust", metadata !"overflow_adjust", metadata !"_ZN13ap_fixed_baseILi16ELi1ELb1EL9ap_q_mode5EL9ap_o_mode3ELi0EE15overflow_adjustEbbbb", metadata !25, i32 520, metadata !45, i1 false, i1 false, i32 0, i32 0, null, i32 256, i1 false, null, null, i32 0, metadata !37, i32 520} ; [ DW_TAG_subprogram ]
!45 = metadata !{i32 786453, i32 0, metadata !"", i32 0, i32 0, i64 0, i64 0, i64 0, i32 0, null, metadata !46, i32 0, i32 0} ; [ DW_TAG_subroutine_type ]
!46 = metadata !{null, metadata !47, metadata !43, metadata !43, metadata !43, metadata !43}
!47 = metadata !{i32 786447, i32 0, metadata !"", i32 0, i32 0, i64 64, i64 64, i64 0, i32 64, metadata !24} ; [ DW_TAG_pointer_type ]
!48 = metadata !{i32 786478, i32 0, metadata !24, metadata !"quantization_adjust", metadata !"quantization_adjust", metadata !"_ZN13ap_fixed_baseILi16ELi1ELb1EL9ap_q_mode5EL9ap_o_mode3ELi0EE19quantization_adjustEbbb", metadata !25, i32 593, metadata !49, i1 false, i1 false, i32 0, i32 0, null, i32 256, i1 false, null, null, i32 0, metadata !37, i32 593} ; [ DW_TAG_subprogram ]
!49 = metadata !{i32 786453, i32 0, metadata !"", i32 0, i32 0, i64 0, i64 0, i64 0, i32 0, null, metadata !50, i32 0, i32 0} ; [ DW_TAG_subroutine_type ]
!50 = metadata !{metadata !43, metadata !47, metadata !43, metadata !43, metadata !43}
!51 = metadata !{i32 786478, i32 0, metadata !24, metadata !"ap_fixed_base", metadata !"ap_fixed_base", metadata !"", metadata !25, i32 651, metadata !52, i1 false, i1 false, i32 0, i32 0, null, i32 256, i1 false, null, null, i32 0, metadata !37, i32 651} ; [ DW_TAG_subprogram ]
!52 = metadata !{i32 786453, i32 0, metadata !"", i32 0, i32 0, i64 0, i64 0, i64 0, i32 0, null, metadata !53, i32 0, i32 0} ; [ DW_TAG_subroutine_type ]
!53 = metadata !{null, metadata !47}
!54 = metadata !{i32 786478, i32 0, metadata !24, metadata !"ap_fixed_base<16, 1, true, 5, 3, 0>", metadata !"ap_fixed_base<16, 1, true, 5, 3, 0>", metadata !"", metadata !25, i32 661, metadata !55, i1 false, i1 false, i32 0, i32 0, null, i32 256, i1 false, null, metadata !59, i32 0, metadata !37, i32 661} ; [ DW_TAG_subprogram ]
!55 = metadata !{i32 786453, i32 0, metadata !"", i32 0, i32 0, i64 0, i64 0, i64 0, i32 0, null, metadata !56, i32 0, i32 0} ; [ DW_TAG_subroutine_type ]
!56 = metadata !{null, metadata !47, metadata !57}
!57 = metadata !{i32 786448, null, null, null, i32 0, i64 0, i64 0, i64 0, i32 0, metadata !58} ; [ DW_TAG_reference_type ]
!58 = metadata !{i32 786470, null, metadata !"", null, i32 0, i64 0, i64 0, i64 0, i32 0, metadata !24} ; [ DW_TAG_const_type ]
!59 = metadata !{metadata !60, metadata !61, metadata !62, metadata !63, metadata !74, metadata !82}
!60 = metadata !{i32 786480, null, metadata !"_AP_W2", metadata !41, i64 16, null, i32 0, i32 0} ; [ DW_TAG_template_value_parameter ]
!61 = metadata !{i32 786480, null, metadata !"_AP_I2", metadata !41, i64 1, null, i32 0, i32 0} ; [ DW_TAG_template_value_parameter ]
!62 = metadata !{i32 786480, null, metadata !"_AP_S2", metadata !43, i64 1, null, i32 0, i32 0} ; [ DW_TAG_template_value_parameter ]
!63 = metadata !{i32 786480, null, metadata !"_AP_Q2", metadata !64, i64 5, null, i32 0, i32 0} ; [ DW_TAG_template_value_parameter ]
!64 = metadata !{i32 786436, null, metadata !"ap_q_mode", metadata !65, i32 655, i64 3, i64 4, i32 0, i32 0, null, metadata !66, i32 0, i32 0} ; [ DW_TAG_enumeration_type ]
!65 = metadata !{i32 786473, metadata !"C:/Xilinx/Vivado_HLS/2015.4/common/technology/autopilot/ap_int_syn.h", metadata !"c:/Users/Peachy/Desktop/SeniorProj", null} ; [ DW_TAG_file_type ]
!66 = metadata !{metadata !67, metadata !68, metadata !69, metadata !70, metadata !71, metadata !72, metadata !73}
!67 = metadata !{i32 786472, metadata !"SC_RND", i64 0} ; [ DW_TAG_enumerator ]
!68 = metadata !{i32 786472, metadata !"SC_RND_ZERO", i64 1} ; [ DW_TAG_enumerator ]
!69 = metadata !{i32 786472, metadata !"SC_RND_MIN_INF", i64 2} ; [ DW_TAG_enumerator ]
!70 = metadata !{i32 786472, metadata !"SC_RND_INF", i64 3} ; [ DW_TAG_enumerator ]
!71 = metadata !{i32 786472, metadata !"SC_RND_CONV", i64 4} ; [ DW_TAG_enumerator ]
!72 = metadata !{i32 786472, metadata !"SC_TRN", i64 5} ; [ DW_TAG_enumerator ]
!73 = metadata !{i32 786472, metadata !"SC_TRN_ZERO", i64 6} ; [ DW_TAG_enumerator ]
!74 = metadata !{i32 786480, null, metadata !"_AP_O2", metadata !75, i64 3, null, i32 0, i32 0} ; [ DW_TAG_template_value_parameter ]
!75 = metadata !{i32 786436, null, metadata !"ap_o_mode", metadata !65, i32 665, i64 3, i64 4, i32 0, i32 0, null, metadata !76, i32 0, i32 0} ; [ DW_TAG_enumeration_type ]
!76 = metadata !{metadata !77, metadata !78, metadata !79, metadata !80, metadata !81}
!77 = metadata !{i32 786472, metadata !"SC_SAT", i64 0} ; [ DW_TAG_enumerator ]
!78 = metadata !{i32 786472, metadata !"SC_SAT_ZERO", i64 1} ; [ DW_TAG_enumerator ]
!79 = metadata !{i32 786472, metadata !"SC_SAT_SYM", i64 2} ; [ DW_TAG_enumerator ]
!80 = metadata !{i32 786472, metadata !"SC_WRAP", i64 3} ; [ DW_TAG_enumerator ]
!81 = metadata !{i32 786472, metadata !"SC_WRAP_SM", i64 4} ; [ DW_TAG_enumerator ]
!82 = metadata !{i32 786480, null, metadata !"_AP_N2", metadata !41, i64 0, null, i32 0, i32 0} ; [ DW_TAG_template_value_parameter ]
!83 = metadata !{i32 786478, i32 0, metadata !24, metadata !"ap_fixed_base<16, 1, true, 5, 3, 0>", metadata !"ap_fixed_base<16, 1, true, 5, 3, 0>", metadata !"", metadata !25, i32 775, metadata !84, i1 false, i1 false, i32 0, i32 0, null, i32 256, i1 false, null, metadata !59, i32 0, metadata !37, i32 775} ; [ DW_TAG_subprogram ]
!84 = metadata !{i32 786453, i32 0, metadata !"", i32 0, i32 0, i64 0, i64 0, i64 0, i32 0, null, metadata !85, i32 0, i32 0} ; [ DW_TAG_subroutine_type ]
!85 = metadata !{null, metadata !47, metadata !86}
!86 = metadata !{i32 786448, null, null, null, i32 0, i64 0, i64 0, i64 0, i32 0, metadata !87} ; [ DW_TAG_reference_type ]
!87 = metadata !{i32 786470, null, metadata !"", null, i32 0, i64 0, i64 0, i64 0, i32 0, metadata !88} ; [ DW_TAG_const_type ]
!88 = metadata !{i32 786485, null, metadata !"", null, i32 0, i64 0, i64 0, i64 0, i32 0, metadata !24} ; [ DW_TAG_volatile_type ]
!89 = metadata !{i32 786478, i32 0, metadata !24, metadata !"ap_fixed_base", metadata !"ap_fixed_base", metadata !"", metadata !25, i32 787, metadata !90, i1 false, i1 false, i32 0, i32 0, null, i32 256, i1 false, null, null, i32 0, metadata !37, i32 787} ; [ DW_TAG_subprogram ]
!90 = metadata !{i32 786453, i32 0, metadata !"", i32 0, i32 0, i64 0, i64 0, i64 0, i32 0, null, metadata !91, i32 0, i32 0} ; [ DW_TAG_subroutine_type ]
!91 = metadata !{null, metadata !47, metadata !43}
!92 = metadata !{i32 786478, i32 0, metadata !24, metadata !"ap_fixed_base", metadata !"ap_fixed_base", metadata !"", metadata !25, i32 788, metadata !93, i1 false, i1 false, i32 0, i32 0, null, i32 256, i1 false, null, null, i32 0, metadata !37, i32 788} ; [ DW_TAG_subprogram ]
!93 = metadata !{i32 786453, i32 0, metadata !"", i32 0, i32 0, i64 0, i64 0, i64 0, i32 0, null, metadata !94, i32 0, i32 0} ; [ DW_TAG_subroutine_type ]
!94 = metadata !{null, metadata !47, metadata !95}
!95 = metadata !{i32 786468, null, metadata !"char", null, i32 0, i64 8, i64 8, i64 0, i32 0, i32 6} ; [ DW_TAG_base_type ]
!96 = metadata !{i32 786478, i32 0, metadata !24, metadata !"ap_fixed_base", metadata !"ap_fixed_base", metadata !"", metadata !25, i32 789, metadata !97, i1 false, i1 false, i32 0, i32 0, null, i32 256, i1 false, null, null, i32 0, metadata !37, i32 789} ; [ DW_TAG_subprogram ]
!97 = metadata !{i32 786453, i32 0, metadata !"", i32 0, i32 0, i64 0, i64 0, i64 0, i32 0, null, metadata !98, i32 0, i32 0} ; [ DW_TAG_subroutine_type ]
!98 = metadata !{null, metadata !47, metadata !99}
!99 = metadata !{i32 786468, null, metadata !"signed char", null, i32 0, i64 8, i64 8, i64 0, i32 0, i32 6} ; [ DW_TAG_base_type ]
!100 = metadata !{i32 786478, i32 0, metadata !24, metadata !"ap_fixed_base", metadata !"ap_fixed_base", metadata !"", metadata !25, i32 790, metadata !101, i1 false, i1 false, i32 0, i32 0, null, i32 256, i1 false, null, null, i32 0, metadata !37, i32 790} ; [ DW_TAG_subprogram ]
!101 = metadata !{i32 786453, i32 0, metadata !"", i32 0, i32 0, i64 0, i64 0, i64 0, i32 0, null, metadata !102, i32 0, i32 0} ; [ DW_TAG_subroutine_type ]
!102 = metadata !{null, metadata !47, metadata !103}
!103 = metadata !{i32 786468, null, metadata !"unsigned char", null, i32 0, i64 8, i64 8, i64 0, i32 0, i32 8} ; [ DW_TAG_base_type ]
!104 = metadata !{i32 786478, i32 0, metadata !24, metadata !"ap_fixed_base", metadata !"ap_fixed_base", metadata !"", metadata !25, i32 791, metadata !105, i1 false, i1 false, i32 0, i32 0, null, i32 256, i1 false, null, null, i32 0, metadata !37, i32 791} ; [ DW_TAG_subprogram ]
!105 = metadata !{i32 786453, i32 0, metadata !"", i32 0, i32 0, i64 0, i64 0, i64 0, i32 0, null, metadata !106, i32 0, i32 0} ; [ DW_TAG_subroutine_type ]
!106 = metadata !{null, metadata !47, metadata !107}
!107 = metadata !{i32 786468, null, metadata !"short", null, i32 0, i64 16, i64 16, i64 0, i32 0, i32 5} ; [ DW_TAG_base_type ]
!108 = metadata !{i32 786478, i32 0, metadata !24, metadata !"ap_fixed_base", metadata !"ap_fixed_base", metadata !"", metadata !25, i32 792, metadata !109, i1 false, i1 false, i32 0, i32 0, null, i32 256, i1 false, null, null, i32 0, metadata !37, i32 792} ; [ DW_TAG_subprogram ]
!109 = metadata !{i32 786453, i32 0, metadata !"", i32 0, i32 0, i64 0, i64 0, i64 0, i32 0, null, metadata !110, i32 0, i32 0} ; [ DW_TAG_subroutine_type ]
!110 = metadata !{null, metadata !47, metadata !111}
!111 = metadata !{i32 786468, null, metadata !"unsigned short", null, i32 0, i64 16, i64 16, i64 0, i32 0, i32 7} ; [ DW_TAG_base_type ]
!112 = metadata !{i32 786478, i32 0, metadata !24, metadata !"ap_fixed_base", metadata !"ap_fixed_base", metadata !"", metadata !25, i32 793, metadata !113, i1 false, i1 false, i32 0, i32 0, null, i32 256, i1 false, null, null, i32 0, metadata !37, i32 793} ; [ DW_TAG_subprogram ]
!113 = metadata !{i32 786453, i32 0, metadata !"", i32 0, i32 0, i64 0, i64 0, i64 0, i32 0, null, metadata !114, i32 0, i32 0} ; [ DW_TAG_subroutine_type ]
!114 = metadata !{null, metadata !47, metadata !41}
!115 = metadata !{i32 786478, i32 0, metadata !24, metadata !"ap_fixed_base", metadata !"ap_fixed_base", metadata !"", metadata !25, i32 794, metadata !116, i1 false, i1 false, i32 0, i32 0, null, i32 256, i1 false, null, null, i32 0, metadata !37, i32 794} ; [ DW_TAG_subprogram ]
!116 = metadata !{i32 786453, i32 0, metadata !"", i32 0, i32 0, i64 0, i64 0, i64 0, i32 0, null, metadata !117, i32 0, i32 0} ; [ DW_TAG_subroutine_type ]
!117 = metadata !{null, metadata !47, metadata !118}
!118 = metadata !{i32 786468, null, metadata !"unsigned int", null, i32 0, i64 32, i64 32, i64 0, i32 0, i32 7} ; [ DW_TAG_base_type ]
!119 = metadata !{i32 786478, i32 0, metadata !24, metadata !"ap_fixed_base", metadata !"ap_fixed_base", metadata !"", metadata !25, i32 796, metadata !120, i1 false, i1 false, i32 0, i32 0, null, i32 256, i1 false, null, null, i32 0, metadata !37, i32 796} ; [ DW_TAG_subprogram ]
!120 = metadata !{i32 786453, i32 0, metadata !"", i32 0, i32 0, i64 0, i64 0, i64 0, i32 0, null, metadata !121, i32 0, i32 0} ; [ DW_TAG_subroutine_type ]
!121 = metadata !{null, metadata !47, metadata !122}
!122 = metadata !{i32 786468, null, metadata !"long int", null, i32 0, i64 32, i64 32, i64 0, i32 0, i32 5} ; [ DW_TAG_base_type ]
!123 = metadata !{i32 786478, i32 0, metadata !24, metadata !"ap_fixed_base", metadata !"ap_fixed_base", metadata !"", metadata !25, i32 797, metadata !124, i1 false, i1 false, i32 0, i32 0, null, i32 256, i1 false, null, null, i32 0, metadata !37, i32 797} ; [ DW_TAG_subprogram ]
!124 = metadata !{i32 786453, i32 0, metadata !"", i32 0, i32 0, i64 0, i64 0, i64 0, i32 0, null, metadata !125, i32 0, i32 0} ; [ DW_TAG_subroutine_type ]
!125 = metadata !{null, metadata !47, metadata !126}
!126 = metadata !{i32 786468, null, metadata !"long unsigned int", null, i32 0, i64 32, i64 32, i64 0, i32 0, i32 7} ; [ DW_TAG_base_type ]
!127 = metadata !{i32 786478, i32 0, metadata !24, metadata !"ap_fixed_base", metadata !"ap_fixed_base", metadata !"", metadata !25, i32 802, metadata !128, i1 false, i1 false, i32 0, i32 0, null, i32 256, i1 false, null, null, i32 0, metadata !37, i32 802} ; [ DW_TAG_subprogram ]
!128 = metadata !{i32 786453, i32 0, metadata !"", i32 0, i32 0, i64 0, i64 0, i64 0, i32 0, null, metadata !129, i32 0, i32 0} ; [ DW_TAG_subroutine_type ]
!129 = metadata !{null, metadata !47, metadata !130}
!130 = metadata !{i32 786454, null, metadata !"ap_slong", metadata !65, i32 110, i64 0, i64 0, i64 0, i32 0, metadata !131} ; [ DW_TAG_typedef ]
!131 = metadata !{i32 786468, null, metadata !"long long int", null, i32 0, i64 64, i64 64, i64 0, i32 0, i32 5} ; [ DW_TAG_base_type ]
!132 = metadata !{i32 786478, i32 0, metadata !24, metadata !"ap_fixed_base", metadata !"ap_fixed_base", metadata !"", metadata !25, i32 803, metadata !133, i1 false, i1 false, i32 0, i32 0, null, i32 256, i1 false, null, null, i32 0, metadata !37, i32 803} ; [ DW_TAG_subprogram ]
!133 = metadata !{i32 786453, i32 0, metadata !"", i32 0, i32 0, i64 0, i64 0, i64 0, i32 0, null, metadata !134, i32 0, i32 0} ; [ DW_TAG_subroutine_type ]
!134 = metadata !{null, metadata !47, metadata !135}
!135 = metadata !{i32 786454, null, metadata !"ap_ulong", metadata !65, i32 109, i64 0, i64 0, i64 0, i32 0, metadata !136} ; [ DW_TAG_typedef ]
!136 = metadata !{i32 786468, null, metadata !"long long unsigned int", null, i32 0, i64 64, i64 64, i64 0, i32 0, i32 7} ; [ DW_TAG_base_type ]
!137 = metadata !{i32 786478, i32 0, metadata !24, metadata !"ap_fixed_base", metadata !"ap_fixed_base", metadata !"", metadata !25, i32 804, metadata !138, i1 false, i1 false, i32 0, i32 0, null, i32 256, i1 false, null, null, i32 0, metadata !37, i32 804} ; [ DW_TAG_subprogram ]
!138 = metadata !{i32 786453, i32 0, metadata !"", i32 0, i32 0, i64 0, i64 0, i64 0, i32 0, null, metadata !139, i32 0, i32 0} ; [ DW_TAG_subroutine_type ]
!139 = metadata !{null, metadata !47, metadata !140}
!140 = metadata !{i32 786447, null, metadata !"", null, i32 0, i64 64, i64 64, i64 0, i32 0, metadata !141} ; [ DW_TAG_pointer_type ]
!141 = metadata !{i32 786470, null, metadata !"", null, i32 0, i64 0, i64 0, i64 0, i32 0, metadata !95} ; [ DW_TAG_const_type ]
!142 = metadata !{i32 786478, i32 0, metadata !24, metadata !"ap_fixed_base", metadata !"ap_fixed_base", metadata !"", metadata !25, i32 811, metadata !143, i1 false, i1 false, i32 0, i32 0, null, i32 256, i1 false, null, null, i32 0, metadata !37, i32 811} ; [ DW_TAG_subprogram ]
!143 = metadata !{i32 786453, i32 0, metadata !"", i32 0, i32 0, i64 0, i64 0, i64 0, i32 0, null, metadata !144, i32 0, i32 0} ; [ DW_TAG_subroutine_type ]
!144 = metadata !{null, metadata !47, metadata !140, metadata !99}
!145 = metadata !{i32 786478, i32 0, metadata !24, metadata !"doubleToRawBits", metadata !"doubleToRawBits", metadata !"_ZNK13ap_fixed_baseILi16ELi1ELb1EL9ap_q_mode5EL9ap_o_mode3ELi0EE15doubleToRawBitsEd", metadata !25, i32 847, metadata !146, i1 false, i1 false, i32 0, i32 0, null, i32 256, i1 false, null, null, i32 0, metadata !37, i32 847} ; [ DW_TAG_subprogram ]
!146 = metadata !{i32 786453, i32 0, metadata !"", i32 0, i32 0, i64 0, i64 0, i64 0, i32 0, null, metadata !147, i32 0, i32 0} ; [ DW_TAG_subroutine_type ]
!147 = metadata !{metadata !136, metadata !148, metadata !149}
!148 = metadata !{i32 786447, i32 0, metadata !"", i32 0, i32 0, i64 64, i64 64, i64 0, i32 64, metadata !58} ; [ DW_TAG_pointer_type ]
!149 = metadata !{i32 786468, null, metadata !"double", null, i32 0, i64 64, i64 64, i64 0, i32 0, i32 4} ; [ DW_TAG_base_type ]
!150 = metadata !{i32 786478, i32 0, metadata !24, metadata !"floatToRawBits", metadata !"floatToRawBits", metadata !"_ZNK13ap_fixed_baseILi16ELi1ELb1EL9ap_q_mode5EL9ap_o_mode3ELi0EE14floatToRawBitsEf", metadata !25, i32 855, metadata !151, i1 false, i1 false, i32 0, i32 0, null, i32 256, i1 false, null, null, i32 0, metadata !37, i32 855} ; [ DW_TAG_subprogram ]
!151 = metadata !{i32 786453, i32 0, metadata !"", i32 0, i32 0, i64 0, i64 0, i64 0, i32 0, null, metadata !152, i32 0, i32 0} ; [ DW_TAG_subroutine_type ]
!152 = metadata !{metadata !118, metadata !148, metadata !153}
!153 = metadata !{i32 786468, null, metadata !"float", null, i32 0, i64 32, i64 32, i64 0, i32 0, i32 4} ; [ DW_TAG_base_type ]
!154 = metadata !{i32 786478, i32 0, metadata !24, metadata !"rawBitsToDouble", metadata !"rawBitsToDouble", metadata !"_ZNK13ap_fixed_baseILi16ELi1ELb1EL9ap_q_mode5EL9ap_o_mode3ELi0EE15rawBitsToDoubleEy", metadata !25, i32 864, metadata !155, i1 false, i1 false, i32 0, i32 0, null, i32 256, i1 false, null, null, i32 0, metadata !37, i32 864} ; [ DW_TAG_subprogram ]
!155 = metadata !{i32 786453, i32 0, metadata !"", i32 0, i32 0, i64 0, i64 0, i64 0, i32 0, null, metadata !156, i32 0, i32 0} ; [ DW_TAG_subroutine_type ]
!156 = metadata !{metadata !149, metadata !148, metadata !136}
!157 = metadata !{i32 786478, i32 0, metadata !24, metadata !"rawBitsToFloat", metadata !"rawBitsToFloat", metadata !"_ZNK13ap_fixed_baseILi16ELi1ELb1EL9ap_q_mode5EL9ap_o_mode3ELi0EE14rawBitsToFloatEj", metadata !25, i32 873, metadata !158, i1 false, i1 false, i32 0, i32 0, null, i32 256, i1 false, null, null, i32 0, metadata !37, i32 873} ; [ DW_TAG_subprogram ]
!158 = metadata !{i32 786453, i32 0, metadata !"", i32 0, i32 0, i64 0, i64 0, i64 0, i32 0, null, metadata !159, i32 0, i32 0} ; [ DW_TAG_subroutine_type ]
!159 = metadata !{metadata !153, metadata !148, metadata !118}
!160 = metadata !{i32 786478, i32 0, metadata !24, metadata !"ap_fixed_base", metadata !"ap_fixed_base", metadata !"", metadata !25, i32 882, metadata !161, i1 false, i1 false, i32 0, i32 0, null, i32 256, i1 false, null, null, i32 0, metadata !37, i32 882} ; [ DW_TAG_subprogram ]
!161 = metadata !{i32 786453, i32 0, metadata !"", i32 0, i32 0, i64 0, i64 0, i64 0, i32 0, null, metadata !162, i32 0, i32 0} ; [ DW_TAG_subroutine_type ]
!162 = metadata !{null, metadata !47, metadata !149}
!163 = metadata !{i32 786478, i32 0, metadata !24, metadata !"operator=", metadata !"operator=", metadata !"_ZN13ap_fixed_baseILi16ELi1ELb1EL9ap_q_mode5EL9ap_o_mode3ELi0EEaSERKS2_", metadata !25, i32 995, metadata !164, i1 false, i1 false, i32 0, i32 0, null, i32 256, i1 false, null, null, i32 0, metadata !37, i32 995} ; [ DW_TAG_subprogram ]
!164 = metadata !{i32 786453, i32 0, metadata !"", i32 0, i32 0, i64 0, i64 0, i64 0, i32 0, null, metadata !165, i32 0, i32 0} ; [ DW_TAG_subroutine_type ]
!165 = metadata !{metadata !166, metadata !47, metadata !57}
!166 = metadata !{i32 786448, null, null, null, i32 0, i64 0, i64 0, i64 0, i32 0, metadata !24} ; [ DW_TAG_reference_type ]
!167 = metadata !{i32 786478, i32 0, metadata !24, metadata !"operator=", metadata !"operator=", metadata !"_ZN13ap_fixed_baseILi16ELi1ELb1EL9ap_q_mode5EL9ap_o_mode3ELi0EEaSERVKS2_", metadata !25, i32 1002, metadata !168, i1 false, i1 false, i32 0, i32 0, null, i32 256, i1 false, null, null, i32 0, metadata !37, i32 1002} ; [ DW_TAG_subprogram ]
!168 = metadata !{i32 786453, i32 0, metadata !"", i32 0, i32 0, i64 0, i64 0, i64 0, i32 0, null, metadata !169, i32 0, i32 0} ; [ DW_TAG_subroutine_type ]
!169 = metadata !{metadata !166, metadata !47, metadata !86}
!170 = metadata !{i32 786478, i32 0, metadata !24, metadata !"operator=", metadata !"operator=", metadata !"_ZNV13ap_fixed_baseILi16ELi1ELb1EL9ap_q_mode5EL9ap_o_mode3ELi0EEaSERKS2_", metadata !25, i32 1009, metadata !171, i1 false, i1 false, i32 0, i32 0, null, i32 256, i1 false, null, null, i32 0, metadata !37, i32 1009} ; [ DW_TAG_subprogram ]
!171 = metadata !{i32 786453, i32 0, metadata !"", i32 0, i32 0, i64 0, i64 0, i64 0, i32 0, null, metadata !172, i32 0, i32 0} ; [ DW_TAG_subroutine_type ]
!172 = metadata !{null, metadata !173, metadata !57}
!173 = metadata !{i32 786447, i32 0, metadata !"", i32 0, i32 0, i64 64, i64 64, i64 0, i32 64, metadata !88} ; [ DW_TAG_pointer_type ]
!174 = metadata !{i32 786478, i32 0, metadata !24, metadata !"operator=", metadata !"operator=", metadata !"_ZNV13ap_fixed_baseILi16ELi1ELb1EL9ap_q_mode5EL9ap_o_mode3ELi0EEaSERVKS2_", metadata !25, i32 1015, metadata !175, i1 false, i1 false, i32 0, i32 0, null, i32 256, i1 false, null, null, i32 0, metadata !37, i32 1015} ; [ DW_TAG_subprogram ]
!175 = metadata !{i32 786453, i32 0, metadata !"", i32 0, i32 0, i64 0, i64 0, i64 0, i32 0, null, metadata !176, i32 0, i32 0} ; [ DW_TAG_subroutine_type ]
!176 = metadata !{null, metadata !173, metadata !86}
!177 = metadata !{i32 786478, i32 0, metadata !24, metadata !"setBits", metadata !"setBits", metadata !"_ZN13ap_fixed_baseILi16ELi1ELb1EL9ap_q_mode5EL9ap_o_mode3ELi0EE7setBitsEy", metadata !25, i32 1024, metadata !178, i1 false, i1 false, i32 0, i32 0, null, i32 256, i1 false, null, null, i32 0, metadata !37, i32 1024} ; [ DW_TAG_subprogram ]
!178 = metadata !{i32 786453, i32 0, metadata !"", i32 0, i32 0, i64 0, i64 0, i64 0, i32 0, null, metadata !179, i32 0, i32 0} ; [ DW_TAG_subroutine_type ]
!179 = metadata !{metadata !166, metadata !47, metadata !136}
!180 = metadata !{i32 786478, i32 0, metadata !24, metadata !"bitsToFixed", metadata !"bitsToFixed", metadata !"_ZN13ap_fixed_baseILi16ELi1ELb1EL9ap_q_mode5EL9ap_o_mode3ELi0EE11bitsToFixedEy", metadata !25, i32 1030, metadata !181, i1 false, i1 false, i32 0, i32 0, null, i32 256, i1 false, null, null, i32 0, metadata !37, i32 1030} ; [ DW_TAG_subprogram ]
!181 = metadata !{i32 786453, i32 0, metadata !"", i32 0, i32 0, i64 0, i64 0, i64 0, i32 0, null, metadata !182, i32 0, i32 0} ; [ DW_TAG_subroutine_type ]
!182 = metadata !{metadata !24, metadata !136}
!183 = metadata !{i32 786478, i32 0, metadata !24, metadata !"to_ap_int_base", metadata !"to_ap_int_base", metadata !"_ZNK13ap_fixed_baseILi16ELi1ELb1EL9ap_q_mode5EL9ap_o_mode3ELi0EE14to_ap_int_baseEb", metadata !25, i32 1039, metadata !184, i1 false, i1 false, i32 0, i32 0, null, i32 256, i1 false, null, null, i32 0, metadata !37, i32 1039} ; [ DW_TAG_subprogram ]
!184 = metadata !{i32 786453, i32 0, metadata !"", i32 0, i32 0, i64 0, i64 0, i64 0, i32 0, null, metadata !185, i32 0, i32 0} ; [ DW_TAG_subroutine_type ]
!185 = metadata !{metadata !186, metadata !148, metadata !43}
!186 = metadata !{i32 786434, null, metadata !"ap_int_base<1, true, true>", metadata !65, i32 649, i32 0, i32 0, i32 0, i32 4, null, null, i32 0} ; [ DW_TAG_class_type ]
!187 = metadata !{i32 786478, i32 0, metadata !24, metadata !"to_int", metadata !"to_int", metadata !"_ZNK13ap_fixed_baseILi16ELi1ELb1EL9ap_q_mode5EL9ap_o_mode3ELi0EE6to_intEv", metadata !25, i32 1074, metadata !188, i1 false, i1 false, i32 0, i32 0, null, i32 256, i1 false, null, null, i32 0, metadata !37, i32 1074} ; [ DW_TAG_subprogram ]
!188 = metadata !{i32 786453, i32 0, metadata !"", i32 0, i32 0, i64 0, i64 0, i64 0, i32 0, null, metadata !189, i32 0, i32 0} ; [ DW_TAG_subroutine_type ]
!189 = metadata !{metadata !41, metadata !148}
!190 = metadata !{i32 786478, i32 0, metadata !24, metadata !"to_uint", metadata !"to_uint", metadata !"_ZNK13ap_fixed_baseILi16ELi1ELb1EL9ap_q_mode5EL9ap_o_mode3ELi0EE7to_uintEv", metadata !25, i32 1077, metadata !191, i1 false, i1 false, i32 0, i32 0, null, i32 256, i1 false, null, null, i32 0, metadata !37, i32 1077} ; [ DW_TAG_subprogram ]
!191 = metadata !{i32 786453, i32 0, metadata !"", i32 0, i32 0, i64 0, i64 0, i64 0, i32 0, null, metadata !192, i32 0, i32 0} ; [ DW_TAG_subroutine_type ]
!192 = metadata !{metadata !118, metadata !148}
!193 = metadata !{i32 786478, i32 0, metadata !24, metadata !"to_int64", metadata !"to_int64", metadata !"_ZNK13ap_fixed_baseILi16ELi1ELb1EL9ap_q_mode5EL9ap_o_mode3ELi0EE8to_int64Ev", metadata !25, i32 1080, metadata !194, i1 false, i1 false, i32 0, i32 0, null, i32 256, i1 false, null, null, i32 0, metadata !37, i32 1080} ; [ DW_TAG_subprogram ]
!194 = metadata !{i32 786453, i32 0, metadata !"", i32 0, i32 0, i64 0, i64 0, i64 0, i32 0, null, metadata !195, i32 0, i32 0} ; [ DW_TAG_subroutine_type ]
!195 = metadata !{metadata !130, metadata !148}
!196 = metadata !{i32 786478, i32 0, metadata !24, metadata !"to_uint64", metadata !"to_uint64", metadata !"_ZNK13ap_fixed_baseILi16ELi1ELb1EL9ap_q_mode5EL9ap_o_mode3ELi0EE9to_uint64Ev", metadata !25, i32 1083, metadata !197, i1 false, i1 false, i32 0, i32 0, null, i32 256, i1 false, null, null, i32 0, metadata !37, i32 1083} ; [ DW_TAG_subprogram ]
!197 = metadata !{i32 786453, i32 0, metadata !"", i32 0, i32 0, i64 0, i64 0, i64 0, i32 0, null, metadata !198, i32 0, i32 0} ; [ DW_TAG_subroutine_type ]
!198 = metadata !{metadata !135, metadata !148}
!199 = metadata !{i32 786478, i32 0, metadata !24, metadata !"to_double", metadata !"to_double", metadata !"_ZNK13ap_fixed_baseILi16ELi1ELb1EL9ap_q_mode5EL9ap_o_mode3ELi0EE9to_doubleEv", metadata !25, i32 1086, metadata !200, i1 false, i1 false, i32 0, i32 0, null, i32 256, i1 false, null, null, i32 0, metadata !37, i32 1086} ; [ DW_TAG_subprogram ]
!200 = metadata !{i32 786453, i32 0, metadata !"", i32 0, i32 0, i64 0, i64 0, i64 0, i32 0, null, metadata !201, i32 0, i32 0} ; [ DW_TAG_subroutine_type ]
!201 = metadata !{metadata !149, metadata !148}
!202 = metadata !{i32 786478, i32 0, metadata !24, metadata !"to_float", metadata !"to_float", metadata !"_ZNK13ap_fixed_baseILi16ELi1ELb1EL9ap_q_mode5EL9ap_o_mode3ELi0EE8to_floatEv", metadata !25, i32 1139, metadata !203, i1 false, i1 false, i32 0, i32 0, null, i32 256, i1 false, null, null, i32 0, metadata !37, i32 1139} ; [ DW_TAG_subprogram ]
!203 = metadata !{i32 786453, i32 0, metadata !"", i32 0, i32 0, i64 0, i64 0, i64 0, i32 0, null, metadata !204, i32 0, i32 0} ; [ DW_TAG_subroutine_type ]
!204 = metadata !{metadata !153, metadata !148}
!205 = metadata !{i32 786478, i32 0, metadata !24, metadata !"operator double", metadata !"operator double", metadata !"_ZNK13ap_fixed_baseILi16ELi1ELb1EL9ap_q_mode5EL9ap_o_mode3ELi0EEcvdEv", metadata !25, i32 1190, metadata !200, i1 false, i1 false, i32 0, i32 0, null, i32 256, i1 false, null, null, i32 0, metadata !37, i32 1190} ; [ DW_TAG_subprogram ]
!206 = metadata !{i32 786478, i32 0, metadata !24, metadata !"operator float", metadata !"operator float", metadata !"_ZNK13ap_fixed_baseILi16ELi1ELb1EL9ap_q_mode5EL9ap_o_mode3ELi0EEcvfEv", metadata !25, i32 1194, metadata !203, i1 false, i1 false, i32 0, i32 0, null, i32 256, i1 false, null, null, i32 0, metadata !37, i32 1194} ; [ DW_TAG_subprogram ]
!207 = metadata !{i32 786478, i32 0, metadata !24, metadata !"operator char", metadata !"operator char", metadata !"_ZNK13ap_fixed_baseILi16ELi1ELb1EL9ap_q_mode5EL9ap_o_mode3ELi0EEcvcEv", metadata !25, i32 1198, metadata !208, i1 false, i1 false, i32 0, i32 0, null, i32 256, i1 false, null, null, i32 0, metadata !37, i32 1198} ; [ DW_TAG_subprogram ]
!208 = metadata !{i32 786453, i32 0, metadata !"", i32 0, i32 0, i64 0, i64 0, i64 0, i32 0, null, metadata !209, i32 0, i32 0} ; [ DW_TAG_subroutine_type ]
!209 = metadata !{metadata !95, metadata !148}
!210 = metadata !{i32 786478, i32 0, metadata !24, metadata !"operator signed char", metadata !"operator signed char", metadata !"_ZNK13ap_fixed_baseILi16ELi1ELb1EL9ap_q_mode5EL9ap_o_mode3ELi0EEcvaEv", metadata !25, i32 1202, metadata !211, i1 false, i1 false, i32 0, i32 0, null, i32 256, i1 false, null, null, i32 0, metadata !37, i32 1202} ; [ DW_TAG_subprogram ]
!211 = metadata !{i32 786453, i32 0, metadata !"", i32 0, i32 0, i64 0, i64 0, i64 0, i32 0, null, metadata !212, i32 0, i32 0} ; [ DW_TAG_subroutine_type ]
!212 = metadata !{metadata !99, metadata !148}
!213 = metadata !{i32 786478, i32 0, metadata !24, metadata !"operator unsigned char", metadata !"operator unsigned char", metadata !"_ZNK13ap_fixed_baseILi16ELi1ELb1EL9ap_q_mode5EL9ap_o_mode3ELi0EEcvhEv", metadata !25, i32 1206, metadata !214, i1 false, i1 false, i32 0, i32 0, null, i32 256, i1 false, null, null, i32 0, metadata !37, i32 1206} ; [ DW_TAG_subprogram ]
!214 = metadata !{i32 786453, i32 0, metadata !"", i32 0, i32 0, i64 0, i64 0, i64 0, i32 0, null, metadata !215, i32 0, i32 0} ; [ DW_TAG_subroutine_type ]
!215 = metadata !{metadata !103, metadata !148}
!216 = metadata !{i32 786478, i32 0, metadata !24, metadata !"operator short", metadata !"operator short", metadata !"_ZNK13ap_fixed_baseILi16ELi1ELb1EL9ap_q_mode5EL9ap_o_mode3ELi0EEcvsEv", metadata !25, i32 1210, metadata !217, i1 false, i1 false, i32 0, i32 0, null, i32 256, i1 false, null, null, i32 0, metadata !37, i32 1210} ; [ DW_TAG_subprogram ]
!217 = metadata !{i32 786453, i32 0, metadata !"", i32 0, i32 0, i64 0, i64 0, i64 0, i32 0, null, metadata !218, i32 0, i32 0} ; [ DW_TAG_subroutine_type ]
!218 = metadata !{metadata !107, metadata !148}
!219 = metadata !{i32 786478, i32 0, metadata !24, metadata !"operator unsigned short", metadata !"operator unsigned short", metadata !"_ZNK13ap_fixed_baseILi16ELi1ELb1EL9ap_q_mode5EL9ap_o_mode3ELi0EEcvtEv", metadata !25, i32 1214, metadata !220, i1 false, i1 false, i32 0, i32 0, null, i32 256, i1 false, null, null, i32 0, metadata !37, i32 1214} ; [ DW_TAG_subprogram ]
!220 = metadata !{i32 786453, i32 0, metadata !"", i32 0, i32 0, i64 0, i64 0, i64 0, i32 0, null, metadata !221, i32 0, i32 0} ; [ DW_TAG_subroutine_type ]
!221 = metadata !{metadata !111, metadata !148}
!222 = metadata !{i32 786478, i32 0, metadata !24, metadata !"operator int", metadata !"operator int", metadata !"_ZNK13ap_fixed_baseILi16ELi1ELb1EL9ap_q_mode5EL9ap_o_mode3ELi0EEcviEv", metadata !25, i32 1219, metadata !188, i1 false, i1 false, i32 0, i32 0, null, i32 256, i1 false, null, null, i32 0, metadata !37, i32 1219} ; [ DW_TAG_subprogram ]
!223 = metadata !{i32 786478, i32 0, metadata !24, metadata !"operator unsigned int", metadata !"operator unsigned int", metadata !"_ZNK13ap_fixed_baseILi16ELi1ELb1EL9ap_q_mode5EL9ap_o_mode3ELi0EEcvjEv", metadata !25, i32 1223, metadata !191, i1 false, i1 false, i32 0, i32 0, null, i32 256, i1 false, null, null, i32 0, metadata !37, i32 1223} ; [ DW_TAG_subprogram ]
!224 = metadata !{i32 786478, i32 0, metadata !24, metadata !"operator long", metadata !"operator long", metadata !"_ZNK13ap_fixed_baseILi16ELi1ELb1EL9ap_q_mode5EL9ap_o_mode3ELi0EEcvlEv", metadata !25, i32 1228, metadata !225, i1 false, i1 false, i32 0, i32 0, null, i32 256, i1 false, null, null, i32 0, metadata !37, i32 1228} ; [ DW_TAG_subprogram ]
!225 = metadata !{i32 786453, i32 0, metadata !"", i32 0, i32 0, i64 0, i64 0, i64 0, i32 0, null, metadata !226, i32 0, i32 0} ; [ DW_TAG_subroutine_type ]
!226 = metadata !{metadata !122, metadata !148}
!227 = metadata !{i32 786478, i32 0, metadata !24, metadata !"operator unsigned long", metadata !"operator unsigned long", metadata !"_ZNK13ap_fixed_baseILi16ELi1ELb1EL9ap_q_mode5EL9ap_o_mode3ELi0EEcvmEv", metadata !25, i32 1232, metadata !228, i1 false, i1 false, i32 0, i32 0, null, i32 256, i1 false, null, null, i32 0, metadata !37, i32 1232} ; [ DW_TAG_subprogram ]
!228 = metadata !{i32 786453, i32 0, metadata !"", i32 0, i32 0, i64 0, i64 0, i64 0, i32 0, null, metadata !229, i32 0, i32 0} ; [ DW_TAG_subroutine_type ]
!229 = metadata !{metadata !126, metadata !148}
!230 = metadata !{i32 786478, i32 0, metadata !24, metadata !"operator unsigned long long", metadata !"operator unsigned long long", metadata !"_ZNK13ap_fixed_baseILi16ELi1ELb1EL9ap_q_mode5EL9ap_o_mode3ELi0EEcvyEv", metadata !25, i32 1245, metadata !231, i1 false, i1 false, i32 0, i32 0, null, i32 256, i1 false, null, null, i32 0, metadata !37, i32 1245} ; [ DW_TAG_subprogram ]
!231 = metadata !{i32 786453, i32 0, metadata !"", i32 0, i32 0, i64 0, i64 0, i64 0, i32 0, null, metadata !232, i32 0, i32 0} ; [ DW_TAG_subroutine_type ]
!232 = metadata !{metadata !136, metadata !148}
!233 = metadata !{i32 786478, i32 0, metadata !24, metadata !"operator long long", metadata !"operator long long", metadata !"_ZNK13ap_fixed_baseILi16ELi1ELb1EL9ap_q_mode5EL9ap_o_mode3ELi0EEcvxEv", metadata !25, i32 1249, metadata !234, i1 false, i1 false, i32 0, i32 0, null, i32 256, i1 false, null, null, i32 0, metadata !37, i32 1249} ; [ DW_TAG_subprogram ]
!234 = metadata !{i32 786453, i32 0, metadata !"", i32 0, i32 0, i64 0, i64 0, i64 0, i32 0, null, metadata !235, i32 0, i32 0} ; [ DW_TAG_subroutine_type ]
!235 = metadata !{metadata !131, metadata !148}
!236 = metadata !{i32 786478, i32 0, metadata !24, metadata !"length", metadata !"length", metadata !"_ZNK13ap_fixed_baseILi16ELi1ELb1EL9ap_q_mode5EL9ap_o_mode3ELi0EE6lengthEv", metadata !25, i32 1253, metadata !188, i1 false, i1 false, i32 0, i32 0, null, i32 256, i1 false, null, null, i32 0, metadata !37, i32 1253} ; [ DW_TAG_subprogram ]
!237 = metadata !{i32 786478, i32 0, metadata !24, metadata !"countLeadingZeros", metadata !"countLeadingZeros", metadata !"_ZN13ap_fixed_baseILi16ELi1ELb1EL9ap_q_mode5EL9ap_o_mode3ELi0EE17countLeadingZerosEv", metadata !25, i32 1257, metadata !238, i1 false, i1 false, i32 0, i32 0, null, i32 256, i1 false, null, null, i32 0, metadata !37, i32 1257} ; [ DW_TAG_subprogram ]
!238 = metadata !{i32 786453, i32 0, metadata !"", i32 0, i32 0, i64 0, i64 0, i64 0, i32 0, null, metadata !239, i32 0, i32 0} ; [ DW_TAG_subroutine_type ]
!239 = metadata !{metadata !41, metadata !47}
!240 = metadata !{i32 786478, i32 0, metadata !24, metadata !"operator++", metadata !"operator++", metadata !"_ZN13ap_fixed_baseILi16ELi1ELb1EL9ap_q_mode5EL9ap_o_mode3ELi0EEppEv", metadata !25, i32 1358, metadata !241, i1 false, i1 false, i32 0, i32 0, null, i32 256, i1 false, null, null, i32 0, metadata !37, i32 1358} ; [ DW_TAG_subprogram ]
!241 = metadata !{i32 786453, i32 0, metadata !"", i32 0, i32 0, i64 0, i64 0, i64 0, i32 0, null, metadata !242, i32 0, i32 0} ; [ DW_TAG_subroutine_type ]
!242 = metadata !{metadata !166, metadata !47}
!243 = metadata !{i32 786478, i32 0, metadata !24, metadata !"operator--", metadata !"operator--", metadata !"_ZN13ap_fixed_baseILi16ELi1ELb1EL9ap_q_mode5EL9ap_o_mode3ELi0EEmmEv", metadata !25, i32 1362, metadata !241, i1 false, i1 false, i32 0, i32 0, null, i32 256, i1 false, null, null, i32 0, metadata !37, i32 1362} ; [ DW_TAG_subprogram ]
!244 = metadata !{i32 786478, i32 0, metadata !24, metadata !"operator++", metadata !"operator++", metadata !"_ZN13ap_fixed_baseILi16ELi1ELb1EL9ap_q_mode5EL9ap_o_mode3ELi0EEppEi", metadata !25, i32 1370, metadata !245, i1 false, i1 false, i32 0, i32 0, null, i32 256, i1 false, null, null, i32 0, metadata !37, i32 1370} ; [ DW_TAG_subprogram ]
!245 = metadata !{i32 786453, i32 0, metadata !"", i32 0, i32 0, i64 0, i64 0, i64 0, i32 0, null, metadata !246, i32 0, i32 0} ; [ DW_TAG_subroutine_type ]
!246 = metadata !{metadata !58, metadata !47, metadata !41}
!247 = metadata !{i32 786478, i32 0, metadata !24, metadata !"operator--", metadata !"operator--", metadata !"_ZN13ap_fixed_baseILi16ELi1ELb1EL9ap_q_mode5EL9ap_o_mode3ELi0EEmmEi", metadata !25, i32 1376, metadata !245, i1 false, i1 false, i32 0, i32 0, null, i32 256, i1 false, null, null, i32 0, metadata !37, i32 1376} ; [ DW_TAG_subprogram ]
!248 = metadata !{i32 786478, i32 0, metadata !24, metadata !"operator+", metadata !"operator+", metadata !"_ZN13ap_fixed_baseILi16ELi1ELb1EL9ap_q_mode5EL9ap_o_mode3ELi0EEpsEv", metadata !25, i32 1384, metadata !249, i1 false, i1 false, i32 0, i32 0, null, i32 256, i1 false, null, null, i32 0, metadata !37, i32 1384} ; [ DW_TAG_subprogram ]
!249 = metadata !{i32 786453, i32 0, metadata !"", i32 0, i32 0, i64 0, i64 0, i64 0, i32 0, null, metadata !250, i32 0, i32 0} ; [ DW_TAG_subroutine_type ]
!250 = metadata !{metadata !24, metadata !47}
!251 = metadata !{i32 786478, i32 0, metadata !24, metadata !"operator-", metadata !"operator-", metadata !"_ZNK13ap_fixed_baseILi16ELi1ELb1EL9ap_q_mode5EL9ap_o_mode3ELi0EEngEv", metadata !25, i32 1388, metadata !252, i1 false, i1 false, i32 0, i32 0, null, i32 256, i1 false, null, null, i32 0, metadata !37, i32 1388} ; [ DW_TAG_subprogram ]
!252 = metadata !{i32 786453, i32 0, metadata !"", i32 0, i32 0, i64 0, i64 0, i64 0, i32 0, null, metadata !253, i32 0, i32 0} ; [ DW_TAG_subroutine_type ]
!253 = metadata !{metadata !254, metadata !148}
!254 = metadata !{i32 786434, null, metadata !"ap_fixed_base<17, 2, true, 5, 3, 0>", metadata !25, i32 510, i32 0, i32 0, i32 0, i32 4, null, null, i32 0} ; [ DW_TAG_class_type ]
!255 = metadata !{i32 786478, i32 0, metadata !24, metadata !"getNeg", metadata !"getNeg", metadata !"_ZN13ap_fixed_baseILi16ELi1ELb1EL9ap_q_mode5EL9ap_o_mode3ELi0EE6getNegEv", metadata !25, i32 1394, metadata !249, i1 false, i1 false, i32 0, i32 0, null, i32 256, i1 false, null, null, i32 0, metadata !37, i32 1394} ; [ DW_TAG_subprogram ]
!256 = metadata !{i32 786478, i32 0, metadata !24, metadata !"operator!", metadata !"operator!", metadata !"_ZNK13ap_fixed_baseILi16ELi1ELb1EL9ap_q_mode5EL9ap_o_mode3ELi0EEntEv", metadata !25, i32 1402, metadata !257, i1 false, i1 false, i32 0, i32 0, null, i32 256, i1 false, null, null, i32 0, metadata !37, i32 1402} ; [ DW_TAG_subprogram ]
!257 = metadata !{i32 786453, i32 0, metadata !"", i32 0, i32 0, i64 0, i64 0, i64 0, i32 0, null, metadata !258, i32 0, i32 0} ; [ DW_TAG_subroutine_type ]
!258 = metadata !{metadata !43, metadata !148}
!259 = metadata !{i32 786478, i32 0, metadata !24, metadata !"operator~", metadata !"operator~", metadata !"_ZNK13ap_fixed_baseILi16ELi1ELb1EL9ap_q_mode5EL9ap_o_mode3ELi0EEcoEv", metadata !25, i32 1408, metadata !260, i1 false, i1 false, i32 0, i32 0, null, i32 256, i1 false, null, null, i32 0, metadata !37, i32 1408} ; [ DW_TAG_subprogram ]
!260 = metadata !{i32 786453, i32 0, metadata !"", i32 0, i32 0, i64 0, i64 0, i64 0, i32 0, null, metadata !261, i32 0, i32 0} ; [ DW_TAG_subroutine_type ]
!261 = metadata !{metadata !24, metadata !148}
!262 = metadata !{i32 786478, i32 0, metadata !24, metadata !"operator<<", metadata !"operator<<", metadata !"_ZNK13ap_fixed_baseILi16ELi1ELb1EL9ap_q_mode5EL9ap_o_mode3ELi0EElsEi", metadata !25, i32 1431, metadata !263, i1 false, i1 false, i32 0, i32 0, null, i32 256, i1 false, null, null, i32 0, metadata !37, i32 1431} ; [ DW_TAG_subprogram ]
!263 = metadata !{i32 786453, i32 0, metadata !"", i32 0, i32 0, i64 0, i64 0, i64 0, i32 0, null, metadata !264, i32 0, i32 0} ; [ DW_TAG_subroutine_type ]
!264 = metadata !{metadata !24, metadata !148, metadata !41}
!265 = metadata !{i32 786478, i32 0, metadata !24, metadata !"operator<<", metadata !"operator<<", metadata !"_ZNK13ap_fixed_baseILi16ELi1ELb1EL9ap_q_mode5EL9ap_o_mode3ELi0EElsEj", metadata !25, i32 1490, metadata !266, i1 false, i1 false, i32 0, i32 0, null, i32 256, i1 false, null, null, i32 0, metadata !37, i32 1490} ; [ DW_TAG_subprogram ]
!266 = metadata !{i32 786453, i32 0, metadata !"", i32 0, i32 0, i64 0, i64 0, i64 0, i32 0, null, metadata !267, i32 0, i32 0} ; [ DW_TAG_subroutine_type ]
!267 = metadata !{metadata !24, metadata !148, metadata !118}
!268 = metadata !{i32 786478, i32 0, metadata !24, metadata !"operator>>", metadata !"operator>>", metadata !"_ZNK13ap_fixed_baseILi16ELi1ELb1EL9ap_q_mode5EL9ap_o_mode3ELi0EErsEi", metadata !25, i32 1534, metadata !263, i1 false, i1 false, i32 0, i32 0, null, i32 256, i1 false, null, null, i32 0, metadata !37, i32 1534} ; [ DW_TAG_subprogram ]
!269 = metadata !{i32 786478, i32 0, metadata !24, metadata !"operator>>", metadata !"operator>>", metadata !"_ZNK13ap_fixed_baseILi16ELi1ELb1EL9ap_q_mode5EL9ap_o_mode3ELi0EErsEj", metadata !25, i32 1592, metadata !266, i1 false, i1 false, i32 0, i32 0, null, i32 256, i1 false, null, null, i32 0, metadata !37, i32 1592} ; [ DW_TAG_subprogram ]
!270 = metadata !{i32 786478, i32 0, metadata !24, metadata !"operator<<=", metadata !"operator<<=", metadata !"_ZN13ap_fixed_baseILi16ELi1ELb1EL9ap_q_mode5EL9ap_o_mode3ELi0EElSEi", metadata !25, i32 1644, metadata !271, i1 false, i1 false, i32 0, i32 0, null, i32 256, i1 false, null, null, i32 0, metadata !37, i32 1644} ; [ DW_TAG_subprogram ]
!271 = metadata !{i32 786453, i32 0, metadata !"", i32 0, i32 0, i64 0, i64 0, i64 0, i32 0, null, metadata !272, i32 0, i32 0} ; [ DW_TAG_subroutine_type ]
!272 = metadata !{metadata !166, metadata !47, metadata !41}
!273 = metadata !{i32 786478, i32 0, metadata !24, metadata !"operator<<=", metadata !"operator<<=", metadata !"_ZN13ap_fixed_baseILi16ELi1ELb1EL9ap_q_mode5EL9ap_o_mode3ELi0EElSEj", metadata !25, i32 1707, metadata !274, i1 false, i1 false, i32 0, i32 0, null, i32 256, i1 false, null, null, i32 0, metadata !37, i32 1707} ; [ DW_TAG_subprogram ]
!274 = metadata !{i32 786453, i32 0, metadata !"", i32 0, i32 0, i64 0, i64 0, i64 0, i32 0, null, metadata !275, i32 0, i32 0} ; [ DW_TAG_subroutine_type ]
!275 = metadata !{metadata !166, metadata !47, metadata !118}
!276 = metadata !{i32 786478, i32 0, metadata !24, metadata !"operator>>=", metadata !"operator>>=", metadata !"_ZN13ap_fixed_baseILi16ELi1ELb1EL9ap_q_mode5EL9ap_o_mode3ELi0EErSEi", metadata !25, i32 1754, metadata !271, i1 false, i1 false, i32 0, i32 0, null, i32 256, i1 false, null, null, i32 0, metadata !37, i32 1754} ; [ DW_TAG_subprogram ]
!277 = metadata !{i32 786478, i32 0, metadata !24, metadata !"operator>>=", metadata !"operator>>=", metadata !"_ZN13ap_fixed_baseILi16ELi1ELb1EL9ap_q_mode5EL9ap_o_mode3ELi0EErSEj", metadata !25, i32 1816, metadata !274, i1 false, i1 false, i32 0, i32 0, null, i32 256, i1 false, null, null, i32 0, metadata !37, i32 1816} ; [ DW_TAG_subprogram ]
!278 = metadata !{i32 786478, i32 0, metadata !24, metadata !"operator==", metadata !"operator==", metadata !"_ZNK13ap_fixed_baseILi16ELi1ELb1EL9ap_q_mode5EL9ap_o_mode3ELi0EEeqEd", metadata !25, i32 1894, metadata !279, i1 false, i1 false, i32 0, i32 0, null, i32 256, i1 false, null, null, i32 0, metadata !37, i32 1894} ; [ DW_TAG_subprogram ]
!279 = metadata !{i32 786453, i32 0, metadata !"", i32 0, i32 0, i64 0, i64 0, i64 0, i32 0, null, metadata !280, i32 0, i32 0} ; [ DW_TAG_subroutine_type ]
!280 = metadata !{metadata !43, metadata !148, metadata !149}
!281 = metadata !{i32 786478, i32 0, metadata !24, metadata !"operator!=", metadata !"operator!=", metadata !"_ZNK13ap_fixed_baseILi16ELi1ELb1EL9ap_q_mode5EL9ap_o_mode3ELi0EEneEd", metadata !25, i32 1895, metadata !279, i1 false, i1 false, i32 0, i32 0, null, i32 256, i1 false, null, null, i32 0, metadata !37, i32 1895} ; [ DW_TAG_subprogram ]
!282 = metadata !{i32 786478, i32 0, metadata !24, metadata !"operator>", metadata !"operator>", metadata !"_ZNK13ap_fixed_baseILi16ELi1ELb1EL9ap_q_mode5EL9ap_o_mode3ELi0EEgtEd", metadata !25, i32 1896, metadata !279, i1 false, i1 false, i32 0, i32 0, null, i32 256, i1 false, null, null, i32 0, metadata !37, i32 1896} ; [ DW_TAG_subprogram ]
!283 = metadata !{i32 786478, i32 0, metadata !24, metadata !"operator>=", metadata !"operator>=", metadata !"_ZNK13ap_fixed_baseILi16ELi1ELb1EL9ap_q_mode5EL9ap_o_mode3ELi0EEgeEd", metadata !25, i32 1897, metadata !279, i1 false, i1 false, i32 0, i32 0, null, i32 256, i1 false, null, null, i32 0, metadata !37, i32 1897} ; [ DW_TAG_subprogram ]
!284 = metadata !{i32 786478, i32 0, metadata !24, metadata !"operator<", metadata !"operator<", metadata !"_ZNK13ap_fixed_baseILi16ELi1ELb1EL9ap_q_mode5EL9ap_o_mode3ELi0EEltEd", metadata !25, i32 1898, metadata !279, i1 false, i1 false, i32 0, i32 0, null, i32 256, i1 false, null, null, i32 0, metadata !37, i32 1898} ; [ DW_TAG_subprogram ]
!285 = metadata !{i32 786478, i32 0, metadata !24, metadata !"operator<=", metadata !"operator<=", metadata !"_ZNK13ap_fixed_baseILi16ELi1ELb1EL9ap_q_mode5EL9ap_o_mode3ELi0EEleEd", metadata !25, i32 1899, metadata !279, i1 false, i1 false, i32 0, i32 0, null, i32 256, i1 false, null, null, i32 0, metadata !37, i32 1899} ; [ DW_TAG_subprogram ]
!286 = metadata !{i32 786478, i32 0, metadata !24, metadata !"operator[]", metadata !"operator[]", metadata !"_ZN13ap_fixed_baseILi16ELi1ELb1EL9ap_q_mode5EL9ap_o_mode3ELi0EEixEj", metadata !25, i32 1902, metadata !287, i1 false, i1 false, i32 0, i32 0, null, i32 256, i1 false, null, null, i32 0, metadata !37, i32 1902} ; [ DW_TAG_subprogram ]
!287 = metadata !{i32 786453, i32 0, metadata !"", i32 0, i32 0, i64 0, i64 0, i64 0, i32 0, null, metadata !288, i32 0, i32 0} ; [ DW_TAG_subroutine_type ]
!288 = metadata !{metadata !289, metadata !47, metadata !118}
!289 = metadata !{i32 786434, null, metadata !"af_bit_ref<16, 1, true, 5, 3, 0>", metadata !25, i32 91, i32 0, i32 0, i32 0, i32 4, null, null, i32 0} ; [ DW_TAG_class_type ]
!290 = metadata !{i32 786478, i32 0, metadata !24, metadata !"operator[]", metadata !"operator[]", metadata !"_ZNK13ap_fixed_baseILi16ELi1ELb1EL9ap_q_mode5EL9ap_o_mode3ELi0EEixEj", metadata !25, i32 1914, metadata !291, i1 false, i1 false, i32 0, i32 0, null, i32 256, i1 false, null, null, i32 0, metadata !37, i32 1914} ; [ DW_TAG_subprogram ]
!291 = metadata !{i32 786453, i32 0, metadata !"", i32 0, i32 0, i64 0, i64 0, i64 0, i32 0, null, metadata !292, i32 0, i32 0} ; [ DW_TAG_subroutine_type ]
!292 = metadata !{metadata !43, metadata !148, metadata !118}
!293 = metadata !{i32 786478, i32 0, metadata !24, metadata !"bit", metadata !"bit", metadata !"_ZN13ap_fixed_baseILi16ELi1ELb1EL9ap_q_mode5EL9ap_o_mode3ELi0EE3bitEj", metadata !25, i32 1919, metadata !287, i1 false, i1 false, i32 0, i32 0, null, i32 256, i1 false, null, null, i32 0, metadata !37, i32 1919} ; [ DW_TAG_subprogram ]
!294 = metadata !{i32 786478, i32 0, metadata !24, metadata !"bit", metadata !"bit", metadata !"_ZNK13ap_fixed_baseILi16ELi1ELb1EL9ap_q_mode5EL9ap_o_mode3ELi0EE3bitEj", metadata !25, i32 1932, metadata !291, i1 false, i1 false, i32 0, i32 0, null, i32 256, i1 false, null, null, i32 0, metadata !37, i32 1932} ; [ DW_TAG_subprogram ]
!295 = metadata !{i32 786478, i32 0, metadata !24, metadata !"get_bit", metadata !"get_bit", metadata !"_ZNK13ap_fixed_baseILi16ELi1ELb1EL9ap_q_mode5EL9ap_o_mode3ELi0EE7get_bitEi", metadata !25, i32 1944, metadata !296, i1 false, i1 false, i32 0, i32 0, null, i32 256, i1 false, null, null, i32 0, metadata !37, i32 1944} ; [ DW_TAG_subprogram ]
!296 = metadata !{i32 786453, i32 0, metadata !"", i32 0, i32 0, i64 0, i64 0, i64 0, i32 0, null, metadata !297, i32 0, i32 0} ; [ DW_TAG_subroutine_type ]
!297 = metadata !{metadata !43, metadata !148, metadata !41}
!298 = metadata !{i32 786478, i32 0, metadata !24, metadata !"get_bit", metadata !"get_bit", metadata !"_ZN13ap_fixed_baseILi16ELi1ELb1EL9ap_q_mode5EL9ap_o_mode3ELi0EE7get_bitEi", metadata !25, i32 1950, metadata !299, i1 false, i1 false, i32 0, i32 0, null, i32 256, i1 false, null, null, i32 0, metadata !37, i32 1950} ; [ DW_TAG_subprogram ]
!299 = metadata !{i32 786453, i32 0, metadata !"", i32 0, i32 0, i64 0, i64 0, i64 0, i32 0, null, metadata !300, i32 0, i32 0} ; [ DW_TAG_subroutine_type ]
!300 = metadata !{metadata !289, metadata !47, metadata !41}
!301 = metadata !{i32 786478, i32 0, metadata !24, metadata !"range", metadata !"range", metadata !"_ZN13ap_fixed_baseILi16ELi1ELb1EL9ap_q_mode5EL9ap_o_mode3ELi0EE5rangeEii", metadata !25, i32 1965, metadata !302, i1 false, i1 false, i32 0, i32 0, null, i32 256, i1 false, null, null, i32 0, metadata !37, i32 1965} ; [ DW_TAG_subprogram ]
!302 = metadata !{i32 786453, i32 0, metadata !"", i32 0, i32 0, i64 0, i64 0, i64 0, i32 0, null, metadata !303, i32 0, i32 0} ; [ DW_TAG_subroutine_type ]
!303 = metadata !{metadata !304, metadata !47, metadata !41, metadata !41}
!304 = metadata !{i32 786434, null, metadata !"af_range_ref<16, 1, true, 5, 3, 0>", metadata !25, i32 236, i32 0, i32 0, i32 0, i32 4, null, null, i32 0} ; [ DW_TAG_class_type ]
!305 = metadata !{i32 786478, i32 0, metadata !24, metadata !"operator()", metadata !"operator()", metadata !"_ZN13ap_fixed_baseILi16ELi1ELb1EL9ap_q_mode5EL9ap_o_mode3ELi0EEclEii", metadata !25, i32 1971, metadata !302, i1 false, i1 false, i32 0, i32 0, null, i32 256, i1 false, null, null, i32 0, metadata !37, i32 1971} ; [ DW_TAG_subprogram ]
!306 = metadata !{i32 786478, i32 0, metadata !24, metadata !"range", metadata !"range", metadata !"_ZNK13ap_fixed_baseILi16ELi1ELb1EL9ap_q_mode5EL9ap_o_mode3ELi0EE5rangeEii", metadata !25, i32 1977, metadata !307, i1 false, i1 false, i32 0, i32 0, null, i32 256, i1 false, null, null, i32 0, metadata !37, i32 1977} ; [ DW_TAG_subprogram ]
!307 = metadata !{i32 786453, i32 0, metadata !"", i32 0, i32 0, i64 0, i64 0, i64 0, i32 0, null, metadata !308, i32 0, i32 0} ; [ DW_TAG_subroutine_type ]
!308 = metadata !{metadata !304, metadata !148, metadata !41, metadata !41}
!309 = metadata !{i32 786478, i32 0, metadata !24, metadata !"operator()", metadata !"operator()", metadata !"_ZNK13ap_fixed_baseILi16ELi1ELb1EL9ap_q_mode5EL9ap_o_mode3ELi0EEclEii", metadata !25, i32 2026, metadata !307, i1 false, i1 false, i32 0, i32 0, null, i32 256, i1 false, null, null, i32 0, metadata !37, i32 2026} ; [ DW_TAG_subprogram ]
!310 = metadata !{i32 786478, i32 0, metadata !24, metadata !"range", metadata !"range", metadata !"_ZN13ap_fixed_baseILi16ELi1ELb1EL9ap_q_mode5EL9ap_o_mode3ELi0EE5rangeEv", metadata !25, i32 2031, metadata !311, i1 false, i1 false, i32 0, i32 0, null, i32 256, i1 false, null, null, i32 0, metadata !37, i32 2031} ; [ DW_TAG_subprogram ]
!311 = metadata !{i32 786453, i32 0, metadata !"", i32 0, i32 0, i64 0, i64 0, i64 0, i32 0, null, metadata !312, i32 0, i32 0} ; [ DW_TAG_subroutine_type ]
!312 = metadata !{metadata !304, metadata !47}
!313 = metadata !{i32 786478, i32 0, metadata !24, metadata !"range", metadata !"range", metadata !"_ZNK13ap_fixed_baseILi16ELi1ELb1EL9ap_q_mode5EL9ap_o_mode3ELi0EE5rangeEv", metadata !25, i32 2036, metadata !314, i1 false, i1 false, i32 0, i32 0, null, i32 256, i1 false, null, null, i32 0, metadata !37, i32 2036} ; [ DW_TAG_subprogram ]
!314 = metadata !{i32 786453, i32 0, metadata !"", i32 0, i32 0, i64 0, i64 0, i64 0, i32 0, null, metadata !315, i32 0, i32 0} ; [ DW_TAG_subroutine_type ]
!315 = metadata !{metadata !304, metadata !148}
!316 = metadata !{i32 786478, i32 0, metadata !24, metadata !"is_zero", metadata !"is_zero", metadata !"_ZNK13ap_fixed_baseILi16ELi1ELb1EL9ap_q_mode5EL9ap_o_mode3ELi0EE7is_zeroEv", metadata !25, i32 2040, metadata !257, i1 false, i1 false, i32 0, i32 0, null, i32 256, i1 false, null, null, i32 0, metadata !37, i32 2040} ; [ DW_TAG_subprogram ]
!317 = metadata !{i32 786478, i32 0, metadata !24, metadata !"is_neg", metadata !"is_neg", metadata !"_ZNK13ap_fixed_baseILi16ELi1ELb1EL9ap_q_mode5EL9ap_o_mode3ELi0EE6is_negEv", metadata !25, i32 2044, metadata !257, i1 false, i1 false, i32 0, i32 0, null, i32 256, i1 false, null, null, i32 0, metadata !37, i32 2044} ; [ DW_TAG_subprogram ]
!318 = metadata !{i32 786478, i32 0, metadata !24, metadata !"wl", metadata !"wl", metadata !"_ZNK13ap_fixed_baseILi16ELi1ELb1EL9ap_q_mode5EL9ap_o_mode3ELi0EE2wlEv", metadata !25, i32 2050, metadata !188, i1 false, i1 false, i32 0, i32 0, null, i32 256, i1 false, null, null, i32 0, metadata !37, i32 2050} ; [ DW_TAG_subprogram ]
!319 = metadata !{i32 786478, i32 0, metadata !24, metadata !"iwl", metadata !"iwl", metadata !"_ZNK13ap_fixed_baseILi16ELi1ELb1EL9ap_q_mode5EL9ap_o_mode3ELi0EE3iwlEv", metadata !25, i32 2054, metadata !188, i1 false, i1 false, i32 0, i32 0, null, i32 256, i1 false, null, null, i32 0, metadata !37, i32 2054} ; [ DW_TAG_subprogram ]
!320 = metadata !{i32 786478, i32 0, metadata !24, metadata !"q_mode", metadata !"q_mode", metadata !"_ZNK13ap_fixed_baseILi16ELi1ELb1EL9ap_q_mode5EL9ap_o_mode3ELi0EE6q_modeEv", metadata !25, i32 2058, metadata !321, i1 false, i1 false, i32 0, i32 0, null, i32 256, i1 false, null, null, i32 0, metadata !37, i32 2058} ; [ DW_TAG_subprogram ]
!321 = metadata !{i32 786453, i32 0, metadata !"", i32 0, i32 0, i64 0, i64 0, i64 0, i32 0, null, metadata !322, i32 0, i32 0} ; [ DW_TAG_subroutine_type ]
!322 = metadata !{metadata !64, metadata !148}
!323 = metadata !{i32 786478, i32 0, metadata !24, metadata !"o_mode", metadata !"o_mode", metadata !"_ZNK13ap_fixed_baseILi16ELi1ELb1EL9ap_q_mode5EL9ap_o_mode3ELi0EE6o_modeEv", metadata !25, i32 2062, metadata !324, i1 false, i1 false, i32 0, i32 0, null, i32 256, i1 false, null, null, i32 0, metadata !37, i32 2062} ; [ DW_TAG_subprogram ]
!324 = metadata !{i32 786453, i32 0, metadata !"", i32 0, i32 0, i64 0, i64 0, i64 0, i32 0, null, metadata !325, i32 0, i32 0} ; [ DW_TAG_subroutine_type ]
!325 = metadata !{metadata !75, metadata !148}
!326 = metadata !{i32 786478, i32 0, metadata !24, metadata !"n_bits", metadata !"n_bits", metadata !"_ZNK13ap_fixed_baseILi16ELi1ELb1EL9ap_q_mode5EL9ap_o_mode3ELi0EE6n_bitsEv", metadata !25, i32 2066, metadata !188, i1 false, i1 false, i32 0, i32 0, null, i32 256, i1 false, null, null, i32 0, metadata !37, i32 2066} ; [ DW_TAG_subprogram ]
!327 = metadata !{i32 786478, i32 0, metadata !24, metadata !"to_string", metadata !"to_string", metadata !"_ZN13ap_fixed_baseILi16ELi1ELb1EL9ap_q_mode5EL9ap_o_mode3ELi0EE9to_stringE8BaseMode", metadata !25, i32 2070, metadata !328, i1 false, i1 false, i32 0, i32 0, null, i32 256, i1 false, null, null, i32 0, metadata !37, i32 2070} ; [ DW_TAG_subprogram ]
!328 = metadata !{i32 786453, i32 0, metadata !"", i32 0, i32 0, i64 0, i64 0, i64 0, i32 0, null, metadata !329, i32 0, i32 0} ; [ DW_TAG_subroutine_type ]
!329 = metadata !{metadata !330, metadata !47, metadata !331}
!330 = metadata !{i32 786447, null, metadata !"", null, i32 0, i64 64, i64 64, i64 0, i32 0, metadata !95} ; [ DW_TAG_pointer_type ]
!331 = metadata !{i32 786436, null, metadata !"BaseMode", metadata !65, i32 601, i64 5, i64 8, i32 0, i32 0, null, metadata !332, i32 0, i32 0} ; [ DW_TAG_enumeration_type ]
!332 = metadata !{metadata !333, metadata !334, metadata !335, metadata !336}
!333 = metadata !{i32 786472, metadata !"SC_BIN", i64 2} ; [ DW_TAG_enumerator ]
!334 = metadata !{i32 786472, metadata !"SC_OCT", i64 8} ; [ DW_TAG_enumerator ]
!335 = metadata !{i32 786472, metadata !"SC_DEC", i64 10} ; [ DW_TAG_enumerator ]
!336 = metadata !{i32 786472, metadata !"SC_HEX", i64 16} ; [ DW_TAG_enumerator ]
!337 = metadata !{i32 786478, i32 0, metadata !24, metadata !"to_string", metadata !"to_string", metadata !"_ZN13ap_fixed_baseILi16ELi1ELb1EL9ap_q_mode5EL9ap_o_mode3ELi0EE9to_stringEa", metadata !25, i32 2074, metadata !338, i1 false, i1 false, i32 0, i32 0, null, i32 256, i1 false, null, null, i32 0, metadata !37, i32 2074} ; [ DW_TAG_subprogram ]
!338 = metadata !{i32 786453, i32 0, metadata !"", i32 0, i32 0, i64 0, i64 0, i64 0, i32 0, null, metadata !339, i32 0, i32 0} ; [ DW_TAG_subroutine_type ]
!339 = metadata !{metadata !330, metadata !47, metadata !99}
!340 = metadata !{metadata !341, metadata !342, metadata !42, metadata !343, metadata !344, metadata !345}
!341 = metadata !{i32 786480, null, metadata !"_AP_W", metadata !41, i64 16, null, i32 0, i32 0} ; [ DW_TAG_template_value_parameter ]
!342 = metadata !{i32 786480, null, metadata !"_AP_I", metadata !41, i64 1, null, i32 0, i32 0} ; [ DW_TAG_template_value_parameter ]
!343 = metadata !{i32 786480, null, metadata !"_AP_Q", metadata !64, i64 5, null, i32 0, i32 0} ; [ DW_TAG_template_value_parameter ]
!344 = metadata !{i32 786480, null, metadata !"_AP_O", metadata !75, i64 3, null, i32 0, i32 0} ; [ DW_TAG_template_value_parameter ]
!345 = metadata !{i32 786480, null, metadata !"_AP_N", metadata !41, i64 0, null, i32 0, i32 0} ; [ DW_TAG_template_value_parameter ]
!346 = metadata !{i32 786478, i32 0, metadata !20, metadata !"ap_fixed", metadata !"ap_fixed", metadata !"", metadata !21, i32 290, metadata !347, i1 false, i1 false, i32 0, i32 0, null, i32 256, i1 false, null, null, i32 0, metadata !37, i32 290} ; [ DW_TAG_subprogram ]
!347 = metadata !{i32 786453, i32 0, metadata !"", i32 0, i32 0, i64 0, i64 0, i64 0, i32 0, null, metadata !348, i32 0, i32 0} ; [ DW_TAG_subroutine_type ]
!348 = metadata !{null, metadata !349}
!349 = metadata !{i32 786447, i32 0, metadata !"", i32 0, i32 0, i64 64, i64 64, i64 0, i32 64, metadata !20} ; [ DW_TAG_pointer_type ]
!350 = metadata !{i32 786478, i32 0, metadata !20, metadata !"ap_fixed<16, 1, 5, 3, 0>", metadata !"ap_fixed<16, 1, 5, 3, 0>", metadata !"", metadata !21, i32 294, metadata !351, i1 false, i1 false, i32 0, i32 0, null, i32 256, i1 false, null, metadata !355, i32 0, metadata !37, i32 294} ; [ DW_TAG_subprogram ]
!351 = metadata !{i32 786453, i32 0, metadata !"", i32 0, i32 0, i64 0, i64 0, i64 0, i32 0, null, metadata !352, i32 0, i32 0} ; [ DW_TAG_subroutine_type ]
!352 = metadata !{null, metadata !349, metadata !353}
!353 = metadata !{i32 786448, null, null, null, i32 0, i64 0, i64 0, i64 0, i32 0, metadata !354} ; [ DW_TAG_reference_type ]
!354 = metadata !{i32 786470, null, metadata !"", null, i32 0, i64 0, i64 0, i64 0, i32 0, metadata !20} ; [ DW_TAG_const_type ]
!355 = metadata !{metadata !60, metadata !61, metadata !63, metadata !74, metadata !82}
!356 = metadata !{i32 786478, i32 0, metadata !20, metadata !"ap_fixed<16, 1, 5, 3, 0>", metadata !"ap_fixed<16, 1, 5, 3, 0>", metadata !"", metadata !21, i32 313, metadata !357, i1 false, i1 false, i32 0, i32 0, null, i32 256, i1 false, null, metadata !355, i32 0, metadata !37, i32 313} ; [ DW_TAG_subprogram ]
!357 = metadata !{i32 786453, i32 0, metadata !"", i32 0, i32 0, i64 0, i64 0, i64 0, i32 0, null, metadata !358, i32 0, i32 0} ; [ DW_TAG_subroutine_type ]
!358 = metadata !{null, metadata !349, metadata !359}
!359 = metadata !{i32 786448, null, null, null, i32 0, i64 0, i64 0, i64 0, i32 0, metadata !360} ; [ DW_TAG_reference_type ]
!360 = metadata !{i32 786470, null, metadata !"", null, i32 0, i64 0, i64 0, i64 0, i32 0, metadata !361} ; [ DW_TAG_const_type ]
!361 = metadata !{i32 786485, null, metadata !"", null, i32 0, i64 0, i64 0, i64 0, i32 0, metadata !20} ; [ DW_TAG_volatile_type ]
!362 = metadata !{i32 786478, i32 0, metadata !20, metadata !"ap_fixed<16, 1, true, 5, 3, 0>", metadata !"ap_fixed<16, 1, true, 5, 3, 0>", metadata !"", metadata !21, i32 332, metadata !363, i1 false, i1 false, i32 0, i32 0, null, i32 256, i1 false, null, metadata !59, i32 0, metadata !37, i32 332} ; [ DW_TAG_subprogram ]
!363 = metadata !{i32 786453, i32 0, metadata !"", i32 0, i32 0, i64 0, i64 0, i64 0, i32 0, null, metadata !364, i32 0, i32 0} ; [ DW_TAG_subroutine_type ]
!364 = metadata !{null, metadata !349, metadata !57}
!365 = metadata !{i32 786478, i32 0, metadata !20, metadata !"ap_fixed<24, 16, true, 5, 3, 0>", metadata !"ap_fixed<24, 16, true, 5, 3, 0>", metadata !"", metadata !21, i32 332, metadata !366, i1 false, i1 false, i32 0, i32 0, null, i32 256, i1 false, null, metadata !401, i32 0, metadata !37, i32 332} ; [ DW_TAG_subprogram ]
!366 = metadata !{i32 786453, i32 0, metadata !"", i32 0, i32 0, i64 0, i64 0, i64 0, i32 0, null, metadata !367, i32 0, i32 0} ; [ DW_TAG_subroutine_type ]
!367 = metadata !{null, metadata !349, metadata !368}
!368 = metadata !{i32 786448, null, null, null, i32 0, i64 0, i64 0, i64 0, i32 0, metadata !369} ; [ DW_TAG_reference_type ]
!369 = metadata !{i32 786470, null, metadata !"", null, i32 0, i64 0, i64 0, i64 0, i32 0, metadata !370} ; [ DW_TAG_const_type ]
!370 = metadata !{i32 786434, null, metadata !"ap_fixed_base<24, 16, true, 5, 3, 0>", metadata !25, i32 510, i64 32, i64 32, i32 0, i32 0, null, metadata !371, i32 0, null, metadata !1132} ; [ DW_TAG_class_type ]
!371 = metadata !{metadata !372, metadata !388, metadata !392, metadata !395, metadata !398, metadata !404, metadata !410, metadata !413, metadata !416, metadata !419, metadata !422, metadata !425, metadata !428, metadata !431, metadata !434, metadata !437, metadata !440, metadata !443, metadata !446, metadata !449, metadata !452, metadata !456, metadata !459, metadata !462, metadata !465, metadata !468, metadata !472, metadata !475, metadata !479, metadata !482, metadata !485, metadata !488, metadata !985, metadata !988, metadata !991, metadata !994, metadata !997, metadata !1000, metadata !1003, metadata !1004, metadata !1005, metadata !1008, metadata !1011, metadata !1014, metadata !1017, metadata !1020, metadata !1021, metadata !1022, metadata !1025, metadata !1028, metadata !1031, metadata !1034, metadata !1035, metadata !1038, metadata !1041, metadata !1042, metadata !1045, metadata !1046, metadata !1049, metadata !1053, metadata !1054, metadata !1057, metadata !1060, metadata !1063, metadata !1066, metadata !1067, metadata !1068, metadata !1071, metadata !1074, metadata !1075, metadata !1076, metadata !1079, metadata !1080, metadata !1081, metadata !1082, metadata !1083, metadata !1084, metadata !1088, metadata !1091, metadata !1092, metadata !1093, metadata !1096, metadata !1099, metadata !1103, metadata !1104, metadata !1107, metadata !1108, metadata !1111, metadata !1114, metadata !1115, metadata !1116, metadata !1117, metadata !1118, metadata !1121, metadata !1124, metadata !1125, metadata !1128, metadata !1131}
!372 = metadata !{i32 786460, metadata !370, null, metadata !25, i32 0, i64 0, i64 0, i64 0, i32 0, metadata !373} ; [ DW_TAG_inheritance ]
!373 = metadata !{i32 786434, null, metadata !"ssdm_int<24 + 1024 * 0, true>", metadata !29, i32 26, i64 32, i64 32, i32 0, i32 0, null, metadata !374, i32 0, null, metadata !386} ; [ DW_TAG_class_type ]
!374 = metadata !{metadata !375, metadata !377, metadata !381}
!375 = metadata !{i32 786445, metadata !373, metadata !"V", metadata !29, i32 26, i64 24, i64 32, i64 0, i32 0, metadata !376} ; [ DW_TAG_member ]
!376 = metadata !{i32 786468, null, metadata !"int24", null, i32 0, i64 24, i64 32, i64 0, i32 0, i32 5} ; [ DW_TAG_base_type ]
!377 = metadata !{i32 786478, i32 0, metadata !373, metadata !"ssdm_int", metadata !"ssdm_int", metadata !"", metadata !29, i32 26, metadata !378, i1 false, i1 false, i32 0, i32 0, null, i32 256, i1 false, null, null, i32 0, metadata !37, i32 26} ; [ DW_TAG_subprogram ]
!378 = metadata !{i32 786453, i32 0, metadata !"", i32 0, i32 0, i64 0, i64 0, i64 0, i32 0, null, metadata !379, i32 0, i32 0} ; [ DW_TAG_subroutine_type ]
!379 = metadata !{null, metadata !380}
!380 = metadata !{i32 786447, i32 0, metadata !"", i32 0, i32 0, i64 64, i64 64, i64 0, i32 64, metadata !373} ; [ DW_TAG_pointer_type ]
!381 = metadata !{i32 786478, i32 0, metadata !373, metadata !"ssdm_int", metadata !"ssdm_int", metadata !"", metadata !29, i32 26, metadata !382, i1 false, i1 false, i32 0, i32 0, null, i32 320, i1 false, null, null, i32 0, metadata !37, i32 26} ; [ DW_TAG_subprogram ]
!382 = metadata !{i32 786453, i32 0, metadata !"", i32 0, i32 0, i64 0, i64 0, i64 0, i32 0, null, metadata !383, i32 0, i32 0} ; [ DW_TAG_subroutine_type ]
!383 = metadata !{null, metadata !380, metadata !384}
!384 = metadata !{i32 786448, null, null, null, i32 0, i64 0, i64 0, i64 0, i32 0, metadata !385} ; [ DW_TAG_reference_type ]
!385 = metadata !{i32 786470, null, metadata !"", null, i32 0, i64 0, i64 0, i64 0, i32 0, metadata !373} ; [ DW_TAG_const_type ]
!386 = metadata !{metadata !387, metadata !42}
!387 = metadata !{i32 786480, null, metadata !"_AP_N", metadata !41, i64 24, null, i32 0, i32 0} ; [ DW_TAG_template_value_parameter ]
!388 = metadata !{i32 786478, i32 0, metadata !370, metadata !"overflow_adjust", metadata !"overflow_adjust", metadata !"_ZN13ap_fixed_baseILi24ELi16ELb1EL9ap_q_mode5EL9ap_o_mode3ELi0EE15overflow_adjustEbbbb", metadata !25, i32 520, metadata !389, i1 false, i1 false, i32 0, i32 0, null, i32 256, i1 false, null, null, i32 0, metadata !37, i32 520} ; [ DW_TAG_subprogram ]
!389 = metadata !{i32 786453, i32 0, metadata !"", i32 0, i32 0, i64 0, i64 0, i64 0, i32 0, null, metadata !390, i32 0, i32 0} ; [ DW_TAG_subroutine_type ]
!390 = metadata !{null, metadata !391, metadata !43, metadata !43, metadata !43, metadata !43}
!391 = metadata !{i32 786447, i32 0, metadata !"", i32 0, i32 0, i64 64, i64 64, i64 0, i32 64, metadata !370} ; [ DW_TAG_pointer_type ]
!392 = metadata !{i32 786478, i32 0, metadata !370, metadata !"quantization_adjust", metadata !"quantization_adjust", metadata !"_ZN13ap_fixed_baseILi24ELi16ELb1EL9ap_q_mode5EL9ap_o_mode3ELi0EE19quantization_adjustEbbb", metadata !25, i32 593, metadata !393, i1 false, i1 false, i32 0, i32 0, null, i32 256, i1 false, null, null, i32 0, metadata !37, i32 593} ; [ DW_TAG_subprogram ]
!393 = metadata !{i32 786453, i32 0, metadata !"", i32 0, i32 0, i64 0, i64 0, i64 0, i32 0, null, metadata !394, i32 0, i32 0} ; [ DW_TAG_subroutine_type ]
!394 = metadata !{metadata !43, metadata !391, metadata !43, metadata !43, metadata !43}
!395 = metadata !{i32 786478, i32 0, metadata !370, metadata !"ap_fixed_base", metadata !"ap_fixed_base", metadata !"", metadata !25, i32 651, metadata !396, i1 false, i1 false, i32 0, i32 0, null, i32 256, i1 false, null, null, i32 0, metadata !37, i32 651} ; [ DW_TAG_subprogram ]
!396 = metadata !{i32 786453, i32 0, metadata !"", i32 0, i32 0, i64 0, i64 0, i64 0, i32 0, null, metadata !397, i32 0, i32 0} ; [ DW_TAG_subroutine_type ]
!397 = metadata !{null, metadata !391}
!398 = metadata !{i32 786478, i32 0, metadata !370, metadata !"ap_fixed_base<24, 16, true, 5, 3, 0>", metadata !"ap_fixed_base<24, 16, true, 5, 3, 0>", metadata !"", metadata !25, i32 661, metadata !399, i1 false, i1 false, i32 0, i32 0, null, i32 256, i1 false, null, metadata !401, i32 0, metadata !37, i32 661} ; [ DW_TAG_subprogram ]
!399 = metadata !{i32 786453, i32 0, metadata !"", i32 0, i32 0, i64 0, i64 0, i64 0, i32 0, null, metadata !400, i32 0, i32 0} ; [ DW_TAG_subroutine_type ]
!400 = metadata !{null, metadata !391, metadata !368}
!401 = metadata !{metadata !402, metadata !403, metadata !62, metadata !63, metadata !74, metadata !82}
!402 = metadata !{i32 786480, null, metadata !"_AP_W2", metadata !41, i64 24, null, i32 0, i32 0} ; [ DW_TAG_template_value_parameter ]
!403 = metadata !{i32 786480, null, metadata !"_AP_I2", metadata !41, i64 16, null, i32 0, i32 0} ; [ DW_TAG_template_value_parameter ]
!404 = metadata !{i32 786478, i32 0, metadata !370, metadata !"ap_fixed_base<24, 16, true, 5, 3, 0>", metadata !"ap_fixed_base<24, 16, true, 5, 3, 0>", metadata !"", metadata !25, i32 775, metadata !405, i1 false, i1 false, i32 0, i32 0, null, i32 256, i1 false, null, metadata !401, i32 0, metadata !37, i32 775} ; [ DW_TAG_subprogram ]
!405 = metadata !{i32 786453, i32 0, metadata !"", i32 0, i32 0, i64 0, i64 0, i64 0, i32 0, null, metadata !406, i32 0, i32 0} ; [ DW_TAG_subroutine_type ]
!406 = metadata !{null, metadata !391, metadata !407}
!407 = metadata !{i32 786448, null, null, null, i32 0, i64 0, i64 0, i64 0, i32 0, metadata !408} ; [ DW_TAG_reference_type ]
!408 = metadata !{i32 786470, null, metadata !"", null, i32 0, i64 0, i64 0, i64 0, i32 0, metadata !409} ; [ DW_TAG_const_type ]
!409 = metadata !{i32 786485, null, metadata !"", null, i32 0, i64 0, i64 0, i64 0, i32 0, metadata !370} ; [ DW_TAG_volatile_type ]
!410 = metadata !{i32 786478, i32 0, metadata !370, metadata !"ap_fixed_base", metadata !"ap_fixed_base", metadata !"", metadata !25, i32 787, metadata !411, i1 false, i1 false, i32 0, i32 0, null, i32 256, i1 false, null, null, i32 0, metadata !37, i32 787} ; [ DW_TAG_subprogram ]
!411 = metadata !{i32 786453, i32 0, metadata !"", i32 0, i32 0, i64 0, i64 0, i64 0, i32 0, null, metadata !412, i32 0, i32 0} ; [ DW_TAG_subroutine_type ]
!412 = metadata !{null, metadata !391, metadata !43}
!413 = metadata !{i32 786478, i32 0, metadata !370, metadata !"ap_fixed_base", metadata !"ap_fixed_base", metadata !"", metadata !25, i32 788, metadata !414, i1 false, i1 false, i32 0, i32 0, null, i32 256, i1 false, null, null, i32 0, metadata !37, i32 788} ; [ DW_TAG_subprogram ]
!414 = metadata !{i32 786453, i32 0, metadata !"", i32 0, i32 0, i64 0, i64 0, i64 0, i32 0, null, metadata !415, i32 0, i32 0} ; [ DW_TAG_subroutine_type ]
!415 = metadata !{null, metadata !391, metadata !95}
!416 = metadata !{i32 786478, i32 0, metadata !370, metadata !"ap_fixed_base", metadata !"ap_fixed_base", metadata !"", metadata !25, i32 789, metadata !417, i1 false, i1 false, i32 0, i32 0, null, i32 256, i1 false, null, null, i32 0, metadata !37, i32 789} ; [ DW_TAG_subprogram ]
!417 = metadata !{i32 786453, i32 0, metadata !"", i32 0, i32 0, i64 0, i64 0, i64 0, i32 0, null, metadata !418, i32 0, i32 0} ; [ DW_TAG_subroutine_type ]
!418 = metadata !{null, metadata !391, metadata !99}
!419 = metadata !{i32 786478, i32 0, metadata !370, metadata !"ap_fixed_base", metadata !"ap_fixed_base", metadata !"", metadata !25, i32 790, metadata !420, i1 false, i1 false, i32 0, i32 0, null, i32 256, i1 false, null, null, i32 0, metadata !37, i32 790} ; [ DW_TAG_subprogram ]
!420 = metadata !{i32 786453, i32 0, metadata !"", i32 0, i32 0, i64 0, i64 0, i64 0, i32 0, null, metadata !421, i32 0, i32 0} ; [ DW_TAG_subroutine_type ]
!421 = metadata !{null, metadata !391, metadata !103}
!422 = metadata !{i32 786478, i32 0, metadata !370, metadata !"ap_fixed_base", metadata !"ap_fixed_base", metadata !"", metadata !25, i32 791, metadata !423, i1 false, i1 false, i32 0, i32 0, null, i32 256, i1 false, null, null, i32 0, metadata !37, i32 791} ; [ DW_TAG_subprogram ]
!423 = metadata !{i32 786453, i32 0, metadata !"", i32 0, i32 0, i64 0, i64 0, i64 0, i32 0, null, metadata !424, i32 0, i32 0} ; [ DW_TAG_subroutine_type ]
!424 = metadata !{null, metadata !391, metadata !107}
!425 = metadata !{i32 786478, i32 0, metadata !370, metadata !"ap_fixed_base", metadata !"ap_fixed_base", metadata !"", metadata !25, i32 792, metadata !426, i1 false, i1 false, i32 0, i32 0, null, i32 256, i1 false, null, null, i32 0, metadata !37, i32 792} ; [ DW_TAG_subprogram ]
!426 = metadata !{i32 786453, i32 0, metadata !"", i32 0, i32 0, i64 0, i64 0, i64 0, i32 0, null, metadata !427, i32 0, i32 0} ; [ DW_TAG_subroutine_type ]
!427 = metadata !{null, metadata !391, metadata !111}
!428 = metadata !{i32 786478, i32 0, metadata !370, metadata !"ap_fixed_base", metadata !"ap_fixed_base", metadata !"", metadata !25, i32 793, metadata !429, i1 false, i1 false, i32 0, i32 0, null, i32 256, i1 false, null, null, i32 0, metadata !37, i32 793} ; [ DW_TAG_subprogram ]
!429 = metadata !{i32 786453, i32 0, metadata !"", i32 0, i32 0, i64 0, i64 0, i64 0, i32 0, null, metadata !430, i32 0, i32 0} ; [ DW_TAG_subroutine_type ]
!430 = metadata !{null, metadata !391, metadata !41}
!431 = metadata !{i32 786478, i32 0, metadata !370, metadata !"ap_fixed_base", metadata !"ap_fixed_base", metadata !"", metadata !25, i32 794, metadata !432, i1 false, i1 false, i32 0, i32 0, null, i32 256, i1 false, null, null, i32 0, metadata !37, i32 794} ; [ DW_TAG_subprogram ]
!432 = metadata !{i32 786453, i32 0, metadata !"", i32 0, i32 0, i64 0, i64 0, i64 0, i32 0, null, metadata !433, i32 0, i32 0} ; [ DW_TAG_subroutine_type ]
!433 = metadata !{null, metadata !391, metadata !118}
!434 = metadata !{i32 786478, i32 0, metadata !370, metadata !"ap_fixed_base", metadata !"ap_fixed_base", metadata !"", metadata !25, i32 796, metadata !435, i1 false, i1 false, i32 0, i32 0, null, i32 256, i1 false, null, null, i32 0, metadata !37, i32 796} ; [ DW_TAG_subprogram ]
!435 = metadata !{i32 786453, i32 0, metadata !"", i32 0, i32 0, i64 0, i64 0, i64 0, i32 0, null, metadata !436, i32 0, i32 0} ; [ DW_TAG_subroutine_type ]
!436 = metadata !{null, metadata !391, metadata !122}
!437 = metadata !{i32 786478, i32 0, metadata !370, metadata !"ap_fixed_base", metadata !"ap_fixed_base", metadata !"", metadata !25, i32 797, metadata !438, i1 false, i1 false, i32 0, i32 0, null, i32 256, i1 false, null, null, i32 0, metadata !37, i32 797} ; [ DW_TAG_subprogram ]
!438 = metadata !{i32 786453, i32 0, metadata !"", i32 0, i32 0, i64 0, i64 0, i64 0, i32 0, null, metadata !439, i32 0, i32 0} ; [ DW_TAG_subroutine_type ]
!439 = metadata !{null, metadata !391, metadata !126}
!440 = metadata !{i32 786478, i32 0, metadata !370, metadata !"ap_fixed_base", metadata !"ap_fixed_base", metadata !"", metadata !25, i32 802, metadata !441, i1 false, i1 false, i32 0, i32 0, null, i32 256, i1 false, null, null, i32 0, metadata !37, i32 802} ; [ DW_TAG_subprogram ]
!441 = metadata !{i32 786453, i32 0, metadata !"", i32 0, i32 0, i64 0, i64 0, i64 0, i32 0, null, metadata !442, i32 0, i32 0} ; [ DW_TAG_subroutine_type ]
!442 = metadata !{null, metadata !391, metadata !130}
!443 = metadata !{i32 786478, i32 0, metadata !370, metadata !"ap_fixed_base", metadata !"ap_fixed_base", metadata !"", metadata !25, i32 803, metadata !444, i1 false, i1 false, i32 0, i32 0, null, i32 256, i1 false, null, null, i32 0, metadata !37, i32 803} ; [ DW_TAG_subprogram ]
!444 = metadata !{i32 786453, i32 0, metadata !"", i32 0, i32 0, i64 0, i64 0, i64 0, i32 0, null, metadata !445, i32 0, i32 0} ; [ DW_TAG_subroutine_type ]
!445 = metadata !{null, metadata !391, metadata !135}
!446 = metadata !{i32 786478, i32 0, metadata !370, metadata !"ap_fixed_base", metadata !"ap_fixed_base", metadata !"", metadata !25, i32 804, metadata !447, i1 false, i1 false, i32 0, i32 0, null, i32 256, i1 false, null, null, i32 0, metadata !37, i32 804} ; [ DW_TAG_subprogram ]
!447 = metadata !{i32 786453, i32 0, metadata !"", i32 0, i32 0, i64 0, i64 0, i64 0, i32 0, null, metadata !448, i32 0, i32 0} ; [ DW_TAG_subroutine_type ]
!448 = metadata !{null, metadata !391, metadata !140}
!449 = metadata !{i32 786478, i32 0, metadata !370, metadata !"ap_fixed_base", metadata !"ap_fixed_base", metadata !"", metadata !25, i32 811, metadata !450, i1 false, i1 false, i32 0, i32 0, null, i32 256, i1 false, null, null, i32 0, metadata !37, i32 811} ; [ DW_TAG_subprogram ]
!450 = metadata !{i32 786453, i32 0, metadata !"", i32 0, i32 0, i64 0, i64 0, i64 0, i32 0, null, metadata !451, i32 0, i32 0} ; [ DW_TAG_subroutine_type ]
!451 = metadata !{null, metadata !391, metadata !140, metadata !99}
!452 = metadata !{i32 786478, i32 0, metadata !370, metadata !"doubleToRawBits", metadata !"doubleToRawBits", metadata !"_ZNK13ap_fixed_baseILi24ELi16ELb1EL9ap_q_mode5EL9ap_o_mode3ELi0EE15doubleToRawBitsEd", metadata !25, i32 847, metadata !453, i1 false, i1 false, i32 0, i32 0, null, i32 256, i1 false, null, null, i32 0, metadata !37, i32 847} ; [ DW_TAG_subprogram ]
!453 = metadata !{i32 786453, i32 0, metadata !"", i32 0, i32 0, i64 0, i64 0, i64 0, i32 0, null, metadata !454, i32 0, i32 0} ; [ DW_TAG_subroutine_type ]
!454 = metadata !{metadata !136, metadata !455, metadata !149}
!455 = metadata !{i32 786447, i32 0, metadata !"", i32 0, i32 0, i64 64, i64 64, i64 0, i32 64, metadata !369} ; [ DW_TAG_pointer_type ]
!456 = metadata !{i32 786478, i32 0, metadata !370, metadata !"floatToRawBits", metadata !"floatToRawBits", metadata !"_ZNK13ap_fixed_baseILi24ELi16ELb1EL9ap_q_mode5EL9ap_o_mode3ELi0EE14floatToRawBitsEf", metadata !25, i32 855, metadata !457, i1 false, i1 false, i32 0, i32 0, null, i32 256, i1 false, null, null, i32 0, metadata !37, i32 855} ; [ DW_TAG_subprogram ]
!457 = metadata !{i32 786453, i32 0, metadata !"", i32 0, i32 0, i64 0, i64 0, i64 0, i32 0, null, metadata !458, i32 0, i32 0} ; [ DW_TAG_subroutine_type ]
!458 = metadata !{metadata !118, metadata !455, metadata !153}
!459 = metadata !{i32 786478, i32 0, metadata !370, metadata !"rawBitsToDouble", metadata !"rawBitsToDouble", metadata !"_ZNK13ap_fixed_baseILi24ELi16ELb1EL9ap_q_mode5EL9ap_o_mode3ELi0EE15rawBitsToDoubleEy", metadata !25, i32 864, metadata !460, i1 false, i1 false, i32 0, i32 0, null, i32 256, i1 false, null, null, i32 0, metadata !37, i32 864} ; [ DW_TAG_subprogram ]
!460 = metadata !{i32 786453, i32 0, metadata !"", i32 0, i32 0, i64 0, i64 0, i64 0, i32 0, null, metadata !461, i32 0, i32 0} ; [ DW_TAG_subroutine_type ]
!461 = metadata !{metadata !149, metadata !455, metadata !136}
!462 = metadata !{i32 786478, i32 0, metadata !370, metadata !"rawBitsToFloat", metadata !"rawBitsToFloat", metadata !"_ZNK13ap_fixed_baseILi24ELi16ELb1EL9ap_q_mode5EL9ap_o_mode3ELi0EE14rawBitsToFloatEj", metadata !25, i32 873, metadata !463, i1 false, i1 false, i32 0, i32 0, null, i32 256, i1 false, null, null, i32 0, metadata !37, i32 873} ; [ DW_TAG_subprogram ]
!463 = metadata !{i32 786453, i32 0, metadata !"", i32 0, i32 0, i64 0, i64 0, i64 0, i32 0, null, metadata !464, i32 0, i32 0} ; [ DW_TAG_subroutine_type ]
!464 = metadata !{metadata !153, metadata !455, metadata !118}
!465 = metadata !{i32 786478, i32 0, metadata !370, metadata !"ap_fixed_base", metadata !"ap_fixed_base", metadata !"", metadata !25, i32 882, metadata !466, i1 false, i1 false, i32 0, i32 0, null, i32 256, i1 false, null, null, i32 0, metadata !37, i32 882} ; [ DW_TAG_subprogram ]
!466 = metadata !{i32 786453, i32 0, metadata !"", i32 0, i32 0, i64 0, i64 0, i64 0, i32 0, null, metadata !467, i32 0, i32 0} ; [ DW_TAG_subroutine_type ]
!467 = metadata !{null, metadata !391, metadata !149}
!468 = metadata !{i32 786478, i32 0, metadata !370, metadata !"operator=", metadata !"operator=", metadata !"_ZN13ap_fixed_baseILi24ELi16ELb1EL9ap_q_mode5EL9ap_o_mode3ELi0EEaSERKS2_", metadata !25, i32 995, metadata !469, i1 false, i1 false, i32 0, i32 0, null, i32 256, i1 false, null, null, i32 0, metadata !37, i32 995} ; [ DW_TAG_subprogram ]
!469 = metadata !{i32 786453, i32 0, metadata !"", i32 0, i32 0, i64 0, i64 0, i64 0, i32 0, null, metadata !470, i32 0, i32 0} ; [ DW_TAG_subroutine_type ]
!470 = metadata !{metadata !471, metadata !391, metadata !368}
!471 = metadata !{i32 786448, null, null, null, i32 0, i64 0, i64 0, i64 0, i32 0, metadata !370} ; [ DW_TAG_reference_type ]
!472 = metadata !{i32 786478, i32 0, metadata !370, metadata !"operator=", metadata !"operator=", metadata !"_ZN13ap_fixed_baseILi24ELi16ELb1EL9ap_q_mode5EL9ap_o_mode3ELi0EEaSERVKS2_", metadata !25, i32 1002, metadata !473, i1 false, i1 false, i32 0, i32 0, null, i32 256, i1 false, null, null, i32 0, metadata !37, i32 1002} ; [ DW_TAG_subprogram ]
!473 = metadata !{i32 786453, i32 0, metadata !"", i32 0, i32 0, i64 0, i64 0, i64 0, i32 0, null, metadata !474, i32 0, i32 0} ; [ DW_TAG_subroutine_type ]
!474 = metadata !{metadata !471, metadata !391, metadata !407}
!475 = metadata !{i32 786478, i32 0, metadata !370, metadata !"operator=", metadata !"operator=", metadata !"_ZNV13ap_fixed_baseILi24ELi16ELb1EL9ap_q_mode5EL9ap_o_mode3ELi0EEaSERKS2_", metadata !25, i32 1009, metadata !476, i1 false, i1 false, i32 0, i32 0, null, i32 256, i1 false, null, null, i32 0, metadata !37, i32 1009} ; [ DW_TAG_subprogram ]
!476 = metadata !{i32 786453, i32 0, metadata !"", i32 0, i32 0, i64 0, i64 0, i64 0, i32 0, null, metadata !477, i32 0, i32 0} ; [ DW_TAG_subroutine_type ]
!477 = metadata !{null, metadata !478, metadata !368}
!478 = metadata !{i32 786447, i32 0, metadata !"", i32 0, i32 0, i64 64, i64 64, i64 0, i32 64, metadata !409} ; [ DW_TAG_pointer_type ]
!479 = metadata !{i32 786478, i32 0, metadata !370, metadata !"operator=", metadata !"operator=", metadata !"_ZNV13ap_fixed_baseILi24ELi16ELb1EL9ap_q_mode5EL9ap_o_mode3ELi0EEaSERVKS2_", metadata !25, i32 1015, metadata !480, i1 false, i1 false, i32 0, i32 0, null, i32 256, i1 false, null, null, i32 0, metadata !37, i32 1015} ; [ DW_TAG_subprogram ]
!480 = metadata !{i32 786453, i32 0, metadata !"", i32 0, i32 0, i64 0, i64 0, i64 0, i32 0, null, metadata !481, i32 0, i32 0} ; [ DW_TAG_subroutine_type ]
!481 = metadata !{null, metadata !478, metadata !407}
!482 = metadata !{i32 786478, i32 0, metadata !370, metadata !"setBits", metadata !"setBits", metadata !"_ZN13ap_fixed_baseILi24ELi16ELb1EL9ap_q_mode5EL9ap_o_mode3ELi0EE7setBitsEy", metadata !25, i32 1024, metadata !483, i1 false, i1 false, i32 0, i32 0, null, i32 256, i1 false, null, null, i32 0, metadata !37, i32 1024} ; [ DW_TAG_subprogram ]
!483 = metadata !{i32 786453, i32 0, metadata !"", i32 0, i32 0, i64 0, i64 0, i64 0, i32 0, null, metadata !484, i32 0, i32 0} ; [ DW_TAG_subroutine_type ]
!484 = metadata !{metadata !471, metadata !391, metadata !136}
!485 = metadata !{i32 786478, i32 0, metadata !370, metadata !"bitsToFixed", metadata !"bitsToFixed", metadata !"_ZN13ap_fixed_baseILi24ELi16ELb1EL9ap_q_mode5EL9ap_o_mode3ELi0EE11bitsToFixedEy", metadata !25, i32 1030, metadata !486, i1 false, i1 false, i32 0, i32 0, null, i32 256, i1 false, null, null, i32 0, metadata !37, i32 1030} ; [ DW_TAG_subprogram ]
!486 = metadata !{i32 786453, i32 0, metadata !"", i32 0, i32 0, i64 0, i64 0, i64 0, i32 0, null, metadata !487, i32 0, i32 0} ; [ DW_TAG_subroutine_type ]
!487 = metadata !{metadata !370, metadata !136}
!488 = metadata !{i32 786478, i32 0, metadata !370, metadata !"to_ap_int_base", metadata !"to_ap_int_base", metadata !"_ZNK13ap_fixed_baseILi24ELi16ELb1EL9ap_q_mode5EL9ap_o_mode3ELi0EE14to_ap_int_baseEb", metadata !25, i32 1039, metadata !489, i1 false, i1 false, i32 0, i32 0, null, i32 256, i1 false, null, null, i32 0, metadata !37, i32 1039} ; [ DW_TAG_subprogram ]
!489 = metadata !{i32 786453, i32 0, metadata !"", i32 0, i32 0, i64 0, i64 0, i64 0, i32 0, null, metadata !490, i32 0, i32 0} ; [ DW_TAG_subroutine_type ]
!490 = metadata !{metadata !491, metadata !455, metadata !43}
!491 = metadata !{i32 786434, null, metadata !"ap_int_base<16, true, true>", metadata !65, i32 1396, i64 16, i64 16, i32 0, i32 0, null, metadata !492, i32 0, null, metadata !984} ; [ DW_TAG_class_type ]
!492 = metadata !{metadata !493, metadata !494, metadata !498, metadata !501, metadata !504, metadata !507, metadata !510, metadata !513, metadata !516, metadata !519, metadata !522, metadata !525, metadata !528, metadata !531, metadata !534, metadata !537, metadata !540, metadata !543, metadata !548, metadata !553, metadata !558, metadata !559, metadata !563, metadata !566, metadata !569, metadata !572, metadata !575, metadata !578, metadata !581, metadata !584, metadata !587, metadata !590, metadata !593, metadata !596, metadata !606, metadata !609, metadata !610, metadata !611, metadata !612, metadata !613, metadata !616, metadata !619, metadata !622, metadata !625, metadata !628, metadata !631, metadata !634, metadata !635, metadata !639, metadata !642, metadata !643, metadata !644, metadata !645, metadata !646, metadata !647, metadata !650, metadata !651, metadata !654, metadata !655, metadata !656, metadata !657, metadata !658, metadata !659, metadata !662, metadata !663, metadata !664, metadata !667, metadata !668, metadata !671, metadata !672, metadata !945, metadata !949, metadata !950, metadata !953, metadata !954, metadata !958, metadata !959, metadata !960, metadata !961, metadata !964, metadata !965, metadata !966, metadata !967, metadata !968, metadata !969, metadata !970, metadata !971, metadata !972, metadata !973, metadata !974, metadata !975, metadata !978, metadata !981}
!493 = metadata !{i32 786460, metadata !491, null, metadata !65, i32 0, i64 0, i64 0, i64 0, i32 0, metadata !28} ; [ DW_TAG_inheritance ]
!494 = metadata !{i32 786478, i32 0, metadata !491, metadata !"ap_int_base", metadata !"ap_int_base", metadata !"", metadata !65, i32 1437, metadata !495, i1 false, i1 false, i32 0, i32 0, null, i32 256, i1 false, null, null, i32 0, metadata !37, i32 1437} ; [ DW_TAG_subprogram ]
!495 = metadata !{i32 786453, i32 0, metadata !"", i32 0, i32 0, i64 0, i64 0, i64 0, i32 0, null, metadata !496, i32 0, i32 0} ; [ DW_TAG_subroutine_type ]
!496 = metadata !{null, metadata !497}
!497 = metadata !{i32 786447, i32 0, metadata !"", i32 0, i32 0, i64 64, i64 64, i64 0, i32 64, metadata !491} ; [ DW_TAG_pointer_type ]
!498 = metadata !{i32 786478, i32 0, metadata !491, metadata !"ap_int_base", metadata !"ap_int_base", metadata !"", metadata !65, i32 1459, metadata !499, i1 false, i1 false, i32 0, i32 0, null, i32 384, i1 false, null, null, i32 0, metadata !37, i32 1459} ; [ DW_TAG_subprogram ]
!499 = metadata !{i32 786453, i32 0, metadata !"", i32 0, i32 0, i64 0, i64 0, i64 0, i32 0, null, metadata !500, i32 0, i32 0} ; [ DW_TAG_subroutine_type ]
!500 = metadata !{null, metadata !497, metadata !43}
!501 = metadata !{i32 786478, i32 0, metadata !491, metadata !"ap_int_base", metadata !"ap_int_base", metadata !"", metadata !65, i32 1460, metadata !502, i1 false, i1 false, i32 0, i32 0, null, i32 384, i1 false, null, null, i32 0, metadata !37, i32 1460} ; [ DW_TAG_subprogram ]
!502 = metadata !{i32 786453, i32 0, metadata !"", i32 0, i32 0, i64 0, i64 0, i64 0, i32 0, null, metadata !503, i32 0, i32 0} ; [ DW_TAG_subroutine_type ]
!503 = metadata !{null, metadata !497, metadata !99}
!504 = metadata !{i32 786478, i32 0, metadata !491, metadata !"ap_int_base", metadata !"ap_int_base", metadata !"", metadata !65, i32 1461, metadata !505, i1 false, i1 false, i32 0, i32 0, null, i32 384, i1 false, null, null, i32 0, metadata !37, i32 1461} ; [ DW_TAG_subprogram ]
!505 = metadata !{i32 786453, i32 0, metadata !"", i32 0, i32 0, i64 0, i64 0, i64 0, i32 0, null, metadata !506, i32 0, i32 0} ; [ DW_TAG_subroutine_type ]
!506 = metadata !{null, metadata !497, metadata !103}
!507 = metadata !{i32 786478, i32 0, metadata !491, metadata !"ap_int_base", metadata !"ap_int_base", metadata !"", metadata !65, i32 1462, metadata !508, i1 false, i1 false, i32 0, i32 0, null, i32 384, i1 false, null, null, i32 0, metadata !37, i32 1462} ; [ DW_TAG_subprogram ]
!508 = metadata !{i32 786453, i32 0, metadata !"", i32 0, i32 0, i64 0, i64 0, i64 0, i32 0, null, metadata !509, i32 0, i32 0} ; [ DW_TAG_subroutine_type ]
!509 = metadata !{null, metadata !497, metadata !107}
!510 = metadata !{i32 786478, i32 0, metadata !491, metadata !"ap_int_base", metadata !"ap_int_base", metadata !"", metadata !65, i32 1463, metadata !511, i1 false, i1 false, i32 0, i32 0, null, i32 384, i1 false, null, null, i32 0, metadata !37, i32 1463} ; [ DW_TAG_subprogram ]
!511 = metadata !{i32 786453, i32 0, metadata !"", i32 0, i32 0, i64 0, i64 0, i64 0, i32 0, null, metadata !512, i32 0, i32 0} ; [ DW_TAG_subroutine_type ]
!512 = metadata !{null, metadata !497, metadata !111}
!513 = metadata !{i32 786478, i32 0, metadata !491, metadata !"ap_int_base", metadata !"ap_int_base", metadata !"", metadata !65, i32 1464, metadata !514, i1 false, i1 false, i32 0, i32 0, null, i32 384, i1 false, null, null, i32 0, metadata !37, i32 1464} ; [ DW_TAG_subprogram ]
!514 = metadata !{i32 786453, i32 0, metadata !"", i32 0, i32 0, i64 0, i64 0, i64 0, i32 0, null, metadata !515, i32 0, i32 0} ; [ DW_TAG_subroutine_type ]
!515 = metadata !{null, metadata !497, metadata !41}
!516 = metadata !{i32 786478, i32 0, metadata !491, metadata !"ap_int_base", metadata !"ap_int_base", metadata !"", metadata !65, i32 1465, metadata !517, i1 false, i1 false, i32 0, i32 0, null, i32 384, i1 false, null, null, i32 0, metadata !37, i32 1465} ; [ DW_TAG_subprogram ]
!517 = metadata !{i32 786453, i32 0, metadata !"", i32 0, i32 0, i64 0, i64 0, i64 0, i32 0, null, metadata !518, i32 0, i32 0} ; [ DW_TAG_subroutine_type ]
!518 = metadata !{null, metadata !497, metadata !118}
!519 = metadata !{i32 786478, i32 0, metadata !491, metadata !"ap_int_base", metadata !"ap_int_base", metadata !"", metadata !65, i32 1466, metadata !520, i1 false, i1 false, i32 0, i32 0, null, i32 384, i1 false, null, null, i32 0, metadata !37, i32 1466} ; [ DW_TAG_subprogram ]
!520 = metadata !{i32 786453, i32 0, metadata !"", i32 0, i32 0, i64 0, i64 0, i64 0, i32 0, null, metadata !521, i32 0, i32 0} ; [ DW_TAG_subroutine_type ]
!521 = metadata !{null, metadata !497, metadata !122}
!522 = metadata !{i32 786478, i32 0, metadata !491, metadata !"ap_int_base", metadata !"ap_int_base", metadata !"", metadata !65, i32 1467, metadata !523, i1 false, i1 false, i32 0, i32 0, null, i32 384, i1 false, null, null, i32 0, metadata !37, i32 1467} ; [ DW_TAG_subprogram ]
!523 = metadata !{i32 786453, i32 0, metadata !"", i32 0, i32 0, i64 0, i64 0, i64 0, i32 0, null, metadata !524, i32 0, i32 0} ; [ DW_TAG_subroutine_type ]
!524 = metadata !{null, metadata !497, metadata !126}
!525 = metadata !{i32 786478, i32 0, metadata !491, metadata !"ap_int_base", metadata !"ap_int_base", metadata !"", metadata !65, i32 1468, metadata !526, i1 false, i1 false, i32 0, i32 0, null, i32 384, i1 false, null, null, i32 0, metadata !37, i32 1468} ; [ DW_TAG_subprogram ]
!526 = metadata !{i32 786453, i32 0, metadata !"", i32 0, i32 0, i64 0, i64 0, i64 0, i32 0, null, metadata !527, i32 0, i32 0} ; [ DW_TAG_subroutine_type ]
!527 = metadata !{null, metadata !497, metadata !130}
!528 = metadata !{i32 786478, i32 0, metadata !491, metadata !"ap_int_base", metadata !"ap_int_base", metadata !"", metadata !65, i32 1469, metadata !529, i1 false, i1 false, i32 0, i32 0, null, i32 384, i1 false, null, null, i32 0, metadata !37, i32 1469} ; [ DW_TAG_subprogram ]
!529 = metadata !{i32 786453, i32 0, metadata !"", i32 0, i32 0, i64 0, i64 0, i64 0, i32 0, null, metadata !530, i32 0, i32 0} ; [ DW_TAG_subroutine_type ]
!530 = metadata !{null, metadata !497, metadata !135}
!531 = metadata !{i32 786478, i32 0, metadata !491, metadata !"ap_int_base", metadata !"ap_int_base", metadata !"", metadata !65, i32 1470, metadata !532, i1 false, i1 false, i32 0, i32 0, null, i32 384, i1 false, null, null, i32 0, metadata !37, i32 1470} ; [ DW_TAG_subprogram ]
!532 = metadata !{i32 786453, i32 0, metadata !"", i32 0, i32 0, i64 0, i64 0, i64 0, i32 0, null, metadata !533, i32 0, i32 0} ; [ DW_TAG_subroutine_type ]
!533 = metadata !{null, metadata !497, metadata !153}
!534 = metadata !{i32 786478, i32 0, metadata !491, metadata !"ap_int_base", metadata !"ap_int_base", metadata !"", metadata !65, i32 1471, metadata !535, i1 false, i1 false, i32 0, i32 0, null, i32 384, i1 false, null, null, i32 0, metadata !37, i32 1471} ; [ DW_TAG_subprogram ]
!535 = metadata !{i32 786453, i32 0, metadata !"", i32 0, i32 0, i64 0, i64 0, i64 0, i32 0, null, metadata !536, i32 0, i32 0} ; [ DW_TAG_subroutine_type ]
!536 = metadata !{null, metadata !497, metadata !149}
!537 = metadata !{i32 786478, i32 0, metadata !491, metadata !"ap_int_base", metadata !"ap_int_base", metadata !"", metadata !65, i32 1498, metadata !538, i1 false, i1 false, i32 0, i32 0, null, i32 256, i1 false, null, null, i32 0, metadata !37, i32 1498} ; [ DW_TAG_subprogram ]
!538 = metadata !{i32 786453, i32 0, metadata !"", i32 0, i32 0, i64 0, i64 0, i64 0, i32 0, null, metadata !539, i32 0, i32 0} ; [ DW_TAG_subroutine_type ]
!539 = metadata !{null, metadata !497, metadata !140}
!540 = metadata !{i32 786478, i32 0, metadata !491, metadata !"ap_int_base", metadata !"ap_int_base", metadata !"", metadata !65, i32 1505, metadata !541, i1 false, i1 false, i32 0, i32 0, null, i32 256, i1 false, null, null, i32 0, metadata !37, i32 1505} ; [ DW_TAG_subprogram ]
!541 = metadata !{i32 786453, i32 0, metadata !"", i32 0, i32 0, i64 0, i64 0, i64 0, i32 0, null, metadata !542, i32 0, i32 0} ; [ DW_TAG_subroutine_type ]
!542 = metadata !{null, metadata !497, metadata !140, metadata !99}
!543 = metadata !{i32 786478, i32 0, metadata !491, metadata !"read", metadata !"read", metadata !"_ZNV11ap_int_baseILi16ELb1ELb1EE4readEv", metadata !65, i32 1526, metadata !544, i1 false, i1 false, i32 0, i32 0, null, i32 256, i1 false, null, null, i32 0, metadata !37, i32 1526} ; [ DW_TAG_subprogram ]
!544 = metadata !{i32 786453, i32 0, metadata !"", i32 0, i32 0, i64 0, i64 0, i64 0, i32 0, null, metadata !545, i32 0, i32 0} ; [ DW_TAG_subroutine_type ]
!545 = metadata !{metadata !491, metadata !546}
!546 = metadata !{i32 786447, i32 0, metadata !"", i32 0, i32 0, i64 64, i64 64, i64 0, i32 64, metadata !547} ; [ DW_TAG_pointer_type ]
!547 = metadata !{i32 786485, null, metadata !"", null, i32 0, i64 0, i64 0, i64 0, i32 0, metadata !491} ; [ DW_TAG_volatile_type ]
!548 = metadata !{i32 786478, i32 0, metadata !491, metadata !"write", metadata !"write", metadata !"_ZNV11ap_int_baseILi16ELb1ELb1EE5writeERKS0_", metadata !65, i32 1532, metadata !549, i1 false, i1 false, i32 0, i32 0, null, i32 256, i1 false, null, null, i32 0, metadata !37, i32 1532} ; [ DW_TAG_subprogram ]
!549 = metadata !{i32 786453, i32 0, metadata !"", i32 0, i32 0, i64 0, i64 0, i64 0, i32 0, null, metadata !550, i32 0, i32 0} ; [ DW_TAG_subroutine_type ]
!550 = metadata !{null, metadata !546, metadata !551}
!551 = metadata !{i32 786448, null, null, null, i32 0, i64 0, i64 0, i64 0, i32 0, metadata !552} ; [ DW_TAG_reference_type ]
!552 = metadata !{i32 786470, null, metadata !"", null, i32 0, i64 0, i64 0, i64 0, i32 0, metadata !491} ; [ DW_TAG_const_type ]
!553 = metadata !{i32 786478, i32 0, metadata !491, metadata !"operator=", metadata !"operator=", metadata !"_ZNV11ap_int_baseILi16ELb1ELb1EEaSERVKS0_", metadata !65, i32 1544, metadata !554, i1 false, i1 false, i32 0, i32 0, null, i32 256, i1 false, null, null, i32 0, metadata !37, i32 1544} ; [ DW_TAG_subprogram ]
!554 = metadata !{i32 786453, i32 0, metadata !"", i32 0, i32 0, i64 0, i64 0, i64 0, i32 0, null, metadata !555, i32 0, i32 0} ; [ DW_TAG_subroutine_type ]
!555 = metadata !{null, metadata !546, metadata !556}
!556 = metadata !{i32 786448, null, null, null, i32 0, i64 0, i64 0, i64 0, i32 0, metadata !557} ; [ DW_TAG_reference_type ]
!557 = metadata !{i32 786470, null, metadata !"", null, i32 0, i64 0, i64 0, i64 0, i32 0, metadata !547} ; [ DW_TAG_const_type ]
!558 = metadata !{i32 786478, i32 0, metadata !491, metadata !"operator=", metadata !"operator=", metadata !"_ZNV11ap_int_baseILi16ELb1ELb1EEaSERKS0_", metadata !65, i32 1553, metadata !549, i1 false, i1 false, i32 0, i32 0, null, i32 256, i1 false, null, null, i32 0, metadata !37, i32 1553} ; [ DW_TAG_subprogram ]
!559 = metadata !{i32 786478, i32 0, metadata !491, metadata !"operator=", metadata !"operator=", metadata !"_ZN11ap_int_baseILi16ELb1ELb1EEaSERVKS0_", metadata !65, i32 1576, metadata !560, i1 false, i1 false, i32 0, i32 0, null, i32 256, i1 false, null, null, i32 0, metadata !37, i32 1576} ; [ DW_TAG_subprogram ]
!560 = metadata !{i32 786453, i32 0, metadata !"", i32 0, i32 0, i64 0, i64 0, i64 0, i32 0, null, metadata !561, i32 0, i32 0} ; [ DW_TAG_subroutine_type ]
!561 = metadata !{metadata !562, metadata !497, metadata !556}
!562 = metadata !{i32 786448, null, null, null, i32 0, i64 0, i64 0, i64 0, i32 0, metadata !491} ; [ DW_TAG_reference_type ]
!563 = metadata !{i32 786478, i32 0, metadata !491, metadata !"operator=", metadata !"operator=", metadata !"_ZN11ap_int_baseILi16ELb1ELb1EEaSERKS0_", metadata !65, i32 1581, metadata !564, i1 false, i1 false, i32 0, i32 0, null, i32 256, i1 false, null, null, i32 0, metadata !37, i32 1581} ; [ DW_TAG_subprogram ]
!564 = metadata !{i32 786453, i32 0, metadata !"", i32 0, i32 0, i64 0, i64 0, i64 0, i32 0, null, metadata !565, i32 0, i32 0} ; [ DW_TAG_subroutine_type ]
!565 = metadata !{metadata !562, metadata !497, metadata !551}
!566 = metadata !{i32 786478, i32 0, metadata !491, metadata !"operator=", metadata !"operator=", metadata !"_ZN11ap_int_baseILi16ELb1ELb1EEaSEPKc", metadata !65, i32 1585, metadata !567, i1 false, i1 false, i32 0, i32 0, null, i32 256, i1 false, null, null, i32 0, metadata !37, i32 1585} ; [ DW_TAG_subprogram ]
!567 = metadata !{i32 786453, i32 0, metadata !"", i32 0, i32 0, i64 0, i64 0, i64 0, i32 0, null, metadata !568, i32 0, i32 0} ; [ DW_TAG_subroutine_type ]
!568 = metadata !{metadata !562, metadata !497, metadata !140}
!569 = metadata !{i32 786478, i32 0, metadata !491, metadata !"set", metadata !"set", metadata !"_ZN11ap_int_baseILi16ELb1ELb1EE3setEPKca", metadata !65, i32 1593, metadata !570, i1 false, i1 false, i32 0, i32 0, null, i32 256, i1 false, null, null, i32 0, metadata !37, i32 1593} ; [ DW_TAG_subprogram ]
!570 = metadata !{i32 786453, i32 0, metadata !"", i32 0, i32 0, i64 0, i64 0, i64 0, i32 0, null, metadata !571, i32 0, i32 0} ; [ DW_TAG_subroutine_type ]
!571 = metadata !{metadata !562, metadata !497, metadata !140, metadata !99}
!572 = metadata !{i32 786478, i32 0, metadata !491, metadata !"operator=", metadata !"operator=", metadata !"_ZN11ap_int_baseILi16ELb1ELb1EEaSEc", metadata !65, i32 1607, metadata !573, i1 false, i1 false, i32 0, i32 0, null, i32 256, i1 false, null, null, i32 0, metadata !37, i32 1607} ; [ DW_TAG_subprogram ]
!573 = metadata !{i32 786453, i32 0, metadata !"", i32 0, i32 0, i64 0, i64 0, i64 0, i32 0, null, metadata !574, i32 0, i32 0} ; [ DW_TAG_subroutine_type ]
!574 = metadata !{metadata !562, metadata !497, metadata !95}
!575 = metadata !{i32 786478, i32 0, metadata !491, metadata !"operator=", metadata !"operator=", metadata !"_ZN11ap_int_baseILi16ELb1ELb1EEaSEh", metadata !65, i32 1608, metadata !576, i1 false, i1 false, i32 0, i32 0, null, i32 256, i1 false, null, null, i32 0, metadata !37, i32 1608} ; [ DW_TAG_subprogram ]
!576 = metadata !{i32 786453, i32 0, metadata !"", i32 0, i32 0, i64 0, i64 0, i64 0, i32 0, null, metadata !577, i32 0, i32 0} ; [ DW_TAG_subroutine_type ]
!577 = metadata !{metadata !562, metadata !497, metadata !103}
!578 = metadata !{i32 786478, i32 0, metadata !491, metadata !"operator=", metadata !"operator=", metadata !"_ZN11ap_int_baseILi16ELb1ELb1EEaSEs", metadata !65, i32 1609, metadata !579, i1 false, i1 false, i32 0, i32 0, null, i32 256, i1 false, null, null, i32 0, metadata !37, i32 1609} ; [ DW_TAG_subprogram ]
!579 = metadata !{i32 786453, i32 0, metadata !"", i32 0, i32 0, i64 0, i64 0, i64 0, i32 0, null, metadata !580, i32 0, i32 0} ; [ DW_TAG_subroutine_type ]
!580 = metadata !{metadata !562, metadata !497, metadata !107}
!581 = metadata !{i32 786478, i32 0, metadata !491, metadata !"operator=", metadata !"operator=", metadata !"_ZN11ap_int_baseILi16ELb1ELb1EEaSEt", metadata !65, i32 1610, metadata !582, i1 false, i1 false, i32 0, i32 0, null, i32 256, i1 false, null, null, i32 0, metadata !37, i32 1610} ; [ DW_TAG_subprogram ]
!582 = metadata !{i32 786453, i32 0, metadata !"", i32 0, i32 0, i64 0, i64 0, i64 0, i32 0, null, metadata !583, i32 0, i32 0} ; [ DW_TAG_subroutine_type ]
!583 = metadata !{metadata !562, metadata !497, metadata !111}
!584 = metadata !{i32 786478, i32 0, metadata !491, metadata !"operator=", metadata !"operator=", metadata !"_ZN11ap_int_baseILi16ELb1ELb1EEaSEi", metadata !65, i32 1611, metadata !585, i1 false, i1 false, i32 0, i32 0, null, i32 256, i1 false, null, null, i32 0, metadata !37, i32 1611} ; [ DW_TAG_subprogram ]
!585 = metadata !{i32 786453, i32 0, metadata !"", i32 0, i32 0, i64 0, i64 0, i64 0, i32 0, null, metadata !586, i32 0, i32 0} ; [ DW_TAG_subroutine_type ]
!586 = metadata !{metadata !562, metadata !497, metadata !41}
!587 = metadata !{i32 786478, i32 0, metadata !491, metadata !"operator=", metadata !"operator=", metadata !"_ZN11ap_int_baseILi16ELb1ELb1EEaSEj", metadata !65, i32 1612, metadata !588, i1 false, i1 false, i32 0, i32 0, null, i32 256, i1 false, null, null, i32 0, metadata !37, i32 1612} ; [ DW_TAG_subprogram ]
!588 = metadata !{i32 786453, i32 0, metadata !"", i32 0, i32 0, i64 0, i64 0, i64 0, i32 0, null, metadata !589, i32 0, i32 0} ; [ DW_TAG_subroutine_type ]
!589 = metadata !{metadata !562, metadata !497, metadata !118}
!590 = metadata !{i32 786478, i32 0, metadata !491, metadata !"operator=", metadata !"operator=", metadata !"_ZN11ap_int_baseILi16ELb1ELb1EEaSEx", metadata !65, i32 1613, metadata !591, i1 false, i1 false, i32 0, i32 0, null, i32 256, i1 false, null, null, i32 0, metadata !37, i32 1613} ; [ DW_TAG_subprogram ]
!591 = metadata !{i32 786453, i32 0, metadata !"", i32 0, i32 0, i64 0, i64 0, i64 0, i32 0, null, metadata !592, i32 0, i32 0} ; [ DW_TAG_subroutine_type ]
!592 = metadata !{metadata !562, metadata !497, metadata !130}
!593 = metadata !{i32 786478, i32 0, metadata !491, metadata !"operator=", metadata !"operator=", metadata !"_ZN11ap_int_baseILi16ELb1ELb1EEaSEy", metadata !65, i32 1614, metadata !594, i1 false, i1 false, i32 0, i32 0, null, i32 256, i1 false, null, null, i32 0, metadata !37, i32 1614} ; [ DW_TAG_subprogram ]
!594 = metadata !{i32 786453, i32 0, metadata !"", i32 0, i32 0, i64 0, i64 0, i64 0, i32 0, null, metadata !595, i32 0, i32 0} ; [ DW_TAG_subroutine_type ]
!595 = metadata !{metadata !562, metadata !497, metadata !135}
!596 = metadata !{i32 786478, i32 0, metadata !491, metadata !"operator short", metadata !"operator short", metadata !"_ZNK11ap_int_baseILi16ELb1ELb1EEcvsEv", metadata !65, i32 1652, metadata !597, i1 false, i1 false, i32 0, i32 0, null, i32 256, i1 false, null, null, i32 0, metadata !37, i32 1652} ; [ DW_TAG_subprogram ]
!597 = metadata !{i32 786453, i32 0, metadata !"", i32 0, i32 0, i64 0, i64 0, i64 0, i32 0, null, metadata !598, i32 0, i32 0} ; [ DW_TAG_subroutine_type ]
!598 = metadata !{metadata !599, metadata !605}
!599 = metadata !{i32 786454, metadata !491, metadata !"RetType", metadata !65, i32 1401, i64 0, i64 0, i64 0, i32 0, metadata !600} ; [ DW_TAG_typedef ]
!600 = metadata !{i32 786454, metadata !601, metadata !"Type", metadata !65, i32 1372, i64 0, i64 0, i64 0, i32 0, metadata !107} ; [ DW_TAG_typedef ]
!601 = metadata !{i32 786434, null, metadata !"retval<2, true>", metadata !65, i32 1371, i64 8, i64 8, i32 0, i32 0, null, metadata !602, i32 0, null, metadata !603} ; [ DW_TAG_class_type ]
!602 = metadata !{i32 0}
!603 = metadata !{metadata !604, metadata !42}
!604 = metadata !{i32 786480, null, metadata !"_AP_N", metadata !41, i64 2, null, i32 0, i32 0} ; [ DW_TAG_template_value_parameter ]
!605 = metadata !{i32 786447, i32 0, metadata !"", i32 0, i32 0, i64 64, i64 64, i64 0, i32 64, metadata !552} ; [ DW_TAG_pointer_type ]
!606 = metadata !{i32 786478, i32 0, metadata !491, metadata !"to_bool", metadata !"to_bool", metadata !"_ZNK11ap_int_baseILi16ELb1ELb1EE7to_boolEv", metadata !65, i32 1658, metadata !607, i1 false, i1 false, i32 0, i32 0, null, i32 256, i1 false, null, null, i32 0, metadata !37, i32 1658} ; [ DW_TAG_subprogram ]
!607 = metadata !{i32 786453, i32 0, metadata !"", i32 0, i32 0, i64 0, i64 0, i64 0, i32 0, null, metadata !608, i32 0, i32 0} ; [ DW_TAG_subroutine_type ]
!608 = metadata !{metadata !43, metadata !605}
!609 = metadata !{i32 786478, i32 0, metadata !491, metadata !"to_uchar", metadata !"to_uchar", metadata !"_ZNK11ap_int_baseILi16ELb1ELb1EE8to_ucharEv", metadata !65, i32 1659, metadata !607, i1 false, i1 false, i32 0, i32 0, null, i32 256, i1 false, null, null, i32 0, metadata !37, i32 1659} ; [ DW_TAG_subprogram ]
!610 = metadata !{i32 786478, i32 0, metadata !491, metadata !"to_char", metadata !"to_char", metadata !"_ZNK11ap_int_baseILi16ELb1ELb1EE7to_charEv", metadata !65, i32 1660, metadata !607, i1 false, i1 false, i32 0, i32 0, null, i32 256, i1 false, null, null, i32 0, metadata !37, i32 1660} ; [ DW_TAG_subprogram ]
!611 = metadata !{i32 786478, i32 0, metadata !491, metadata !"to_ushort", metadata !"to_ushort", metadata !"_ZNK11ap_int_baseILi16ELb1ELb1EE9to_ushortEv", metadata !65, i32 1661, metadata !607, i1 false, i1 false, i32 0, i32 0, null, i32 256, i1 false, null, null, i32 0, metadata !37, i32 1661} ; [ DW_TAG_subprogram ]
!612 = metadata !{i32 786478, i32 0, metadata !491, metadata !"to_short", metadata !"to_short", metadata !"_ZNK11ap_int_baseILi16ELb1ELb1EE8to_shortEv", metadata !65, i32 1662, metadata !607, i1 false, i1 false, i32 0, i32 0, null, i32 256, i1 false, null, null, i32 0, metadata !37, i32 1662} ; [ DW_TAG_subprogram ]
!613 = metadata !{i32 786478, i32 0, metadata !491, metadata !"to_int", metadata !"to_int", metadata !"_ZNK11ap_int_baseILi16ELb1ELb1EE6to_intEv", metadata !65, i32 1663, metadata !614, i1 false, i1 false, i32 0, i32 0, null, i32 256, i1 false, null, null, i32 0, metadata !37, i32 1663} ; [ DW_TAG_subprogram ]
!614 = metadata !{i32 786453, i32 0, metadata !"", i32 0, i32 0, i64 0, i64 0, i64 0, i32 0, null, metadata !615, i32 0, i32 0} ; [ DW_TAG_subroutine_type ]
!615 = metadata !{metadata !41, metadata !605}
!616 = metadata !{i32 786478, i32 0, metadata !491, metadata !"to_uint", metadata !"to_uint", metadata !"_ZNK11ap_int_baseILi16ELb1ELb1EE7to_uintEv", metadata !65, i32 1664, metadata !617, i1 false, i1 false, i32 0, i32 0, null, i32 256, i1 false, null, null, i32 0, metadata !37, i32 1664} ; [ DW_TAG_subprogram ]
!617 = metadata !{i32 786453, i32 0, metadata !"", i32 0, i32 0, i64 0, i64 0, i64 0, i32 0, null, metadata !618, i32 0, i32 0} ; [ DW_TAG_subroutine_type ]
!618 = metadata !{metadata !118, metadata !605}
!619 = metadata !{i32 786478, i32 0, metadata !491, metadata !"to_long", metadata !"to_long", metadata !"_ZNK11ap_int_baseILi16ELb1ELb1EE7to_longEv", metadata !65, i32 1665, metadata !620, i1 false, i1 false, i32 0, i32 0, null, i32 256, i1 false, null, null, i32 0, metadata !37, i32 1665} ; [ DW_TAG_subprogram ]
!620 = metadata !{i32 786453, i32 0, metadata !"", i32 0, i32 0, i64 0, i64 0, i64 0, i32 0, null, metadata !621, i32 0, i32 0} ; [ DW_TAG_subroutine_type ]
!621 = metadata !{metadata !122, metadata !605}
!622 = metadata !{i32 786478, i32 0, metadata !491, metadata !"to_ulong", metadata !"to_ulong", metadata !"_ZNK11ap_int_baseILi16ELb1ELb1EE8to_ulongEv", metadata !65, i32 1666, metadata !623, i1 false, i1 false, i32 0, i32 0, null, i32 256, i1 false, null, null, i32 0, metadata !37, i32 1666} ; [ DW_TAG_subprogram ]
!623 = metadata !{i32 786453, i32 0, metadata !"", i32 0, i32 0, i64 0, i64 0, i64 0, i32 0, null, metadata !624, i32 0, i32 0} ; [ DW_TAG_subroutine_type ]
!624 = metadata !{metadata !126, metadata !605}
!625 = metadata !{i32 786478, i32 0, metadata !491, metadata !"to_int64", metadata !"to_int64", metadata !"_ZNK11ap_int_baseILi16ELb1ELb1EE8to_int64Ev", metadata !65, i32 1667, metadata !626, i1 false, i1 false, i32 0, i32 0, null, i32 256, i1 false, null, null, i32 0, metadata !37, i32 1667} ; [ DW_TAG_subprogram ]
!626 = metadata !{i32 786453, i32 0, metadata !"", i32 0, i32 0, i64 0, i64 0, i64 0, i32 0, null, metadata !627, i32 0, i32 0} ; [ DW_TAG_subroutine_type ]
!627 = metadata !{metadata !130, metadata !605}
!628 = metadata !{i32 786478, i32 0, metadata !491, metadata !"to_uint64", metadata !"to_uint64", metadata !"_ZNK11ap_int_baseILi16ELb1ELb1EE9to_uint64Ev", metadata !65, i32 1668, metadata !629, i1 false, i1 false, i32 0, i32 0, null, i32 256, i1 false, null, null, i32 0, metadata !37, i32 1668} ; [ DW_TAG_subprogram ]
!629 = metadata !{i32 786453, i32 0, metadata !"", i32 0, i32 0, i64 0, i64 0, i64 0, i32 0, null, metadata !630, i32 0, i32 0} ; [ DW_TAG_subroutine_type ]
!630 = metadata !{metadata !135, metadata !605}
!631 = metadata !{i32 786478, i32 0, metadata !491, metadata !"to_double", metadata !"to_double", metadata !"_ZNK11ap_int_baseILi16ELb1ELb1EE9to_doubleEv", metadata !65, i32 1669, metadata !632, i1 false, i1 false, i32 0, i32 0, null, i32 256, i1 false, null, null, i32 0, metadata !37, i32 1669} ; [ DW_TAG_subprogram ]
!632 = metadata !{i32 786453, i32 0, metadata !"", i32 0, i32 0, i64 0, i64 0, i64 0, i32 0, null, metadata !633, i32 0, i32 0} ; [ DW_TAG_subroutine_type ]
!633 = metadata !{metadata !149, metadata !605}
!634 = metadata !{i32 786478, i32 0, metadata !491, metadata !"length", metadata !"length", metadata !"_ZNK11ap_int_baseILi16ELb1ELb1EE6lengthEv", metadata !65, i32 1682, metadata !614, i1 false, i1 false, i32 0, i32 0, null, i32 256, i1 false, null, null, i32 0, metadata !37, i32 1682} ; [ DW_TAG_subprogram ]
!635 = metadata !{i32 786478, i32 0, metadata !491, metadata !"length", metadata !"length", metadata !"_ZNVK11ap_int_baseILi16ELb1ELb1EE6lengthEv", metadata !65, i32 1683, metadata !636, i1 false, i1 false, i32 0, i32 0, null, i32 256, i1 false, null, null, i32 0, metadata !37, i32 1683} ; [ DW_TAG_subprogram ]
!636 = metadata !{i32 786453, i32 0, metadata !"", i32 0, i32 0, i64 0, i64 0, i64 0, i32 0, null, metadata !637, i32 0, i32 0} ; [ DW_TAG_subroutine_type ]
!637 = metadata !{metadata !41, metadata !638}
!638 = metadata !{i32 786447, i32 0, metadata !"", i32 0, i32 0, i64 64, i64 64, i64 0, i32 64, metadata !557} ; [ DW_TAG_pointer_type ]
!639 = metadata !{i32 786478, i32 0, metadata !491, metadata !"reverse", metadata !"reverse", metadata !"_ZN11ap_int_baseILi16ELb1ELb1EE7reverseEv", metadata !65, i32 1688, metadata !640, i1 false, i1 false, i32 0, i32 0, null, i32 256, i1 false, null, null, i32 0, metadata !37, i32 1688} ; [ DW_TAG_subprogram ]
!640 = metadata !{i32 786453, i32 0, metadata !"", i32 0, i32 0, i64 0, i64 0, i64 0, i32 0, null, metadata !641, i32 0, i32 0} ; [ DW_TAG_subroutine_type ]
!641 = metadata !{metadata !562, metadata !497}
!642 = metadata !{i32 786478, i32 0, metadata !491, metadata !"iszero", metadata !"iszero", metadata !"_ZNK11ap_int_baseILi16ELb1ELb1EE6iszeroEv", metadata !65, i32 1694, metadata !607, i1 false, i1 false, i32 0, i32 0, null, i32 256, i1 false, null, null, i32 0, metadata !37, i32 1694} ; [ DW_TAG_subprogram ]
!643 = metadata !{i32 786478, i32 0, metadata !491, metadata !"is_zero", metadata !"is_zero", metadata !"_ZNK11ap_int_baseILi16ELb1ELb1EE7is_zeroEv", metadata !65, i32 1699, metadata !607, i1 false, i1 false, i32 0, i32 0, null, i32 256, i1 false, null, null, i32 0, metadata !37, i32 1699} ; [ DW_TAG_subprogram ]
!644 = metadata !{i32 786478, i32 0, metadata !491, metadata !"sign", metadata !"sign", metadata !"_ZNK11ap_int_baseILi16ELb1ELb1EE4signEv", metadata !65, i32 1704, metadata !607, i1 false, i1 false, i32 0, i32 0, null, i32 256, i1 false, null, null, i32 0, metadata !37, i32 1704} ; [ DW_TAG_subprogram ]
!645 = metadata !{i32 786478, i32 0, metadata !491, metadata !"clear", metadata !"clear", metadata !"_ZN11ap_int_baseILi16ELb1ELb1EE5clearEi", metadata !65, i32 1712, metadata !514, i1 false, i1 false, i32 0, i32 0, null, i32 256, i1 false, null, null, i32 0, metadata !37, i32 1712} ; [ DW_TAG_subprogram ]
!646 = metadata !{i32 786478, i32 0, metadata !491, metadata !"invert", metadata !"invert", metadata !"_ZN11ap_int_baseILi16ELb1ELb1EE6invertEi", metadata !65, i32 1718, metadata !514, i1 false, i1 false, i32 0, i32 0, null, i32 256, i1 false, null, null, i32 0, metadata !37, i32 1718} ; [ DW_TAG_subprogram ]
!647 = metadata !{i32 786478, i32 0, metadata !491, metadata !"test", metadata !"test", metadata !"_ZNK11ap_int_baseILi16ELb1ELb1EE4testEi", metadata !65, i32 1726, metadata !648, i1 false, i1 false, i32 0, i32 0, null, i32 256, i1 false, null, null, i32 0, metadata !37, i32 1726} ; [ DW_TAG_subprogram ]
!648 = metadata !{i32 786453, i32 0, metadata !"", i32 0, i32 0, i64 0, i64 0, i64 0, i32 0, null, metadata !649, i32 0, i32 0} ; [ DW_TAG_subroutine_type ]
!649 = metadata !{metadata !43, metadata !605, metadata !41}
!650 = metadata !{i32 786478, i32 0, metadata !491, metadata !"set", metadata !"set", metadata !"_ZN11ap_int_baseILi16ELb1ELb1EE3setEi", metadata !65, i32 1732, metadata !514, i1 false, i1 false, i32 0, i32 0, null, i32 256, i1 false, null, null, i32 0, metadata !37, i32 1732} ; [ DW_TAG_subprogram ]
!651 = metadata !{i32 786478, i32 0, metadata !491, metadata !"set", metadata !"set", metadata !"_ZN11ap_int_baseILi16ELb1ELb1EE3setEib", metadata !65, i32 1738, metadata !652, i1 false, i1 false, i32 0, i32 0, null, i32 256, i1 false, null, null, i32 0, metadata !37, i32 1738} ; [ DW_TAG_subprogram ]
!652 = metadata !{i32 786453, i32 0, metadata !"", i32 0, i32 0, i64 0, i64 0, i64 0, i32 0, null, metadata !653, i32 0, i32 0} ; [ DW_TAG_subroutine_type ]
!653 = metadata !{null, metadata !497, metadata !41, metadata !43}
!654 = metadata !{i32 786478, i32 0, metadata !491, metadata !"lrotate", metadata !"lrotate", metadata !"_ZN11ap_int_baseILi16ELb1ELb1EE7lrotateEi", metadata !65, i32 1745, metadata !514, i1 false, i1 false, i32 0, i32 0, null, i32 256, i1 false, null, null, i32 0, metadata !37, i32 1745} ; [ DW_TAG_subprogram ]
!655 = metadata !{i32 786478, i32 0, metadata !491, metadata !"rrotate", metadata !"rrotate", metadata !"_ZN11ap_int_baseILi16ELb1ELb1EE7rrotateEi", metadata !65, i32 1754, metadata !514, i1 false, i1 false, i32 0, i32 0, null, i32 256, i1 false, null, null, i32 0, metadata !37, i32 1754} ; [ DW_TAG_subprogram ]
!656 = metadata !{i32 786478, i32 0, metadata !491, metadata !"set_bit", metadata !"set_bit", metadata !"_ZN11ap_int_baseILi16ELb1ELb1EE7set_bitEib", metadata !65, i32 1762, metadata !652, i1 false, i1 false, i32 0, i32 0, null, i32 256, i1 false, null, null, i32 0, metadata !37, i32 1762} ; [ DW_TAG_subprogram ]
!657 = metadata !{i32 786478, i32 0, metadata !491, metadata !"get_bit", metadata !"get_bit", metadata !"_ZNK11ap_int_baseILi16ELb1ELb1EE7get_bitEi", metadata !65, i32 1767, metadata !648, i1 false, i1 false, i32 0, i32 0, null, i32 256, i1 false, null, null, i32 0, metadata !37, i32 1767} ; [ DW_TAG_subprogram ]
!658 = metadata !{i32 786478, i32 0, metadata !491, metadata !"b_not", metadata !"b_not", metadata !"_ZN11ap_int_baseILi16ELb1ELb1EE5b_notEv", metadata !65, i32 1772, metadata !495, i1 false, i1 false, i32 0, i32 0, null, i32 256, i1 false, null, null, i32 0, metadata !37, i32 1772} ; [ DW_TAG_subprogram ]
!659 = metadata !{i32 786478, i32 0, metadata !491, metadata !"countLeadingZeros", metadata !"countLeadingZeros", metadata !"_ZN11ap_int_baseILi16ELb1ELb1EE17countLeadingZerosEv", metadata !65, i32 1779, metadata !660, i1 false, i1 false, i32 0, i32 0, null, i32 256, i1 false, null, null, i32 0, metadata !37, i32 1779} ; [ DW_TAG_subprogram ]
!660 = metadata !{i32 786453, i32 0, metadata !"", i32 0, i32 0, i64 0, i64 0, i64 0, i32 0, null, metadata !661, i32 0, i32 0} ; [ DW_TAG_subroutine_type ]
!661 = metadata !{metadata !41, metadata !497}
!662 = metadata !{i32 786478, i32 0, metadata !491, metadata !"operator++", metadata !"operator++", metadata !"_ZN11ap_int_baseILi16ELb1ELb1EEppEv", metadata !65, i32 1836, metadata !640, i1 false, i1 false, i32 0, i32 0, null, i32 256, i1 false, null, null, i32 0, metadata !37, i32 1836} ; [ DW_TAG_subprogram ]
!663 = metadata !{i32 786478, i32 0, metadata !491, metadata !"operator--", metadata !"operator--", metadata !"_ZN11ap_int_baseILi16ELb1ELb1EEmmEv", metadata !65, i32 1840, metadata !640, i1 false, i1 false, i32 0, i32 0, null, i32 256, i1 false, null, null, i32 0, metadata !37, i32 1840} ; [ DW_TAG_subprogram ]
!664 = metadata !{i32 786478, i32 0, metadata !491, metadata !"operator++", metadata !"operator++", metadata !"_ZN11ap_int_baseILi16ELb1ELb1EEppEi", metadata !65, i32 1848, metadata !665, i1 false, i1 false, i32 0, i32 0, null, i32 256, i1 false, null, null, i32 0, metadata !37, i32 1848} ; [ DW_TAG_subprogram ]
!665 = metadata !{i32 786453, i32 0, metadata !"", i32 0, i32 0, i64 0, i64 0, i64 0, i32 0, null, metadata !666, i32 0, i32 0} ; [ DW_TAG_subroutine_type ]
!666 = metadata !{metadata !552, metadata !497, metadata !41}
!667 = metadata !{i32 786478, i32 0, metadata !491, metadata !"operator--", metadata !"operator--", metadata !"_ZN11ap_int_baseILi16ELb1ELb1EEmmEi", metadata !65, i32 1853, metadata !665, i1 false, i1 false, i32 0, i32 0, null, i32 256, i1 false, null, null, i32 0, metadata !37, i32 1853} ; [ DW_TAG_subprogram ]
!668 = metadata !{i32 786478, i32 0, metadata !491, metadata !"operator+", metadata !"operator+", metadata !"_ZNK11ap_int_baseILi16ELb1ELb1EEpsEv", metadata !65, i32 1862, metadata !669, i1 false, i1 false, i32 0, i32 0, null, i32 256, i1 false, null, null, i32 0, metadata !37, i32 1862} ; [ DW_TAG_subprogram ]
!669 = metadata !{i32 786453, i32 0, metadata !"", i32 0, i32 0, i64 0, i64 0, i64 0, i32 0, null, metadata !670, i32 0, i32 0} ; [ DW_TAG_subroutine_type ]
!670 = metadata !{metadata !491, metadata !605}
!671 = metadata !{i32 786478, i32 0, metadata !491, metadata !"operator!", metadata !"operator!", metadata !"_ZNK11ap_int_baseILi16ELb1ELb1EEntEv", metadata !65, i32 1868, metadata !607, i1 false, i1 false, i32 0, i32 0, null, i32 256, i1 false, null, null, i32 0, metadata !37, i32 1868} ; [ DW_TAG_subprogram ]
!672 = metadata !{i32 786478, i32 0, metadata !491, metadata !"operator-", metadata !"operator-", metadata !"_ZNK11ap_int_baseILi16ELb1ELb1EEngEv", metadata !65, i32 1873, metadata !673, i1 false, i1 false, i32 0, i32 0, null, i32 256, i1 false, null, null, i32 0, metadata !37, i32 1873} ; [ DW_TAG_subprogram ]
!673 = metadata !{i32 786453, i32 0, metadata !"", i32 0, i32 0, i64 0, i64 0, i64 0, i32 0, null, metadata !674, i32 0, i32 0} ; [ DW_TAG_subroutine_type ]
!674 = metadata !{metadata !675, metadata !605}
!675 = metadata !{i32 786434, null, metadata !"ap_int_base<17, true, true>", metadata !65, i32 1396, i64 32, i64 32, i32 0, i32 0, null, metadata !676, i32 0, null, metadata !943} ; [ DW_TAG_class_type ]
!676 = metadata !{metadata !677, metadata !688, metadata !692, metadata !695, metadata !698, metadata !701, metadata !704, metadata !707, metadata !710, metadata !713, metadata !716, metadata !719, metadata !722, metadata !725, metadata !728, metadata !731, metadata !734, metadata !737, metadata !742, metadata !747, metadata !752, metadata !753, metadata !757, metadata !760, metadata !763, metadata !766, metadata !769, metadata !772, metadata !775, metadata !778, metadata !781, metadata !784, metadata !787, metadata !790, metadata !799, metadata !802, metadata !803, metadata !804, metadata !805, metadata !806, metadata !809, metadata !812, metadata !815, metadata !818, metadata !821, metadata !824, metadata !827, metadata !828, metadata !832, metadata !835, metadata !836, metadata !837, metadata !838, metadata !839, metadata !840, metadata !843, metadata !844, metadata !847, metadata !848, metadata !849, metadata !850, metadata !851, metadata !852, metadata !855, metadata !856, metadata !857, metadata !860, metadata !861, metadata !864, metadata !865, metadata !869, metadata !873, metadata !874, metadata !877, metadata !878, metadata !917, metadata !918, metadata !919, metadata !920, metadata !923, metadata !924, metadata !925, metadata !926, metadata !927, metadata !928, metadata !929, metadata !930, metadata !931, metadata !932, metadata !933, metadata !934, metadata !937, metadata !940}
!677 = metadata !{i32 786460, metadata !675, null, metadata !65, i32 0, i64 0, i64 0, i64 0, i32 0, metadata !678} ; [ DW_TAG_inheritance ]
!678 = metadata !{i32 786434, null, metadata !"ssdm_int<17 + 1024 * 0, true>", metadata !29, i32 19, i64 32, i64 32, i32 0, i32 0, null, metadata !679, i32 0, null, metadata !686} ; [ DW_TAG_class_type ]
!679 = metadata !{metadata !680, metadata !682}
!680 = metadata !{i32 786445, metadata !678, metadata !"V", metadata !29, i32 19, i64 17, i64 32, i64 0, i32 0, metadata !681} ; [ DW_TAG_member ]
!681 = metadata !{i32 786468, null, metadata !"int17", null, i32 0, i64 17, i64 32, i64 0, i32 0, i32 5} ; [ DW_TAG_base_type ]
!682 = metadata !{i32 786478, i32 0, metadata !678, metadata !"ssdm_int", metadata !"ssdm_int", metadata !"", metadata !29, i32 19, metadata !683, i1 false, i1 false, i32 0, i32 0, null, i32 256, i1 false, null, null, i32 0, metadata !37, i32 19} ; [ DW_TAG_subprogram ]
!683 = metadata !{i32 786453, i32 0, metadata !"", i32 0, i32 0, i64 0, i64 0, i64 0, i32 0, null, metadata !684, i32 0, i32 0} ; [ DW_TAG_subroutine_type ]
!684 = metadata !{null, metadata !685}
!685 = metadata !{i32 786447, i32 0, metadata !"", i32 0, i32 0, i64 64, i64 64, i64 0, i32 64, metadata !678} ; [ DW_TAG_pointer_type ]
!686 = metadata !{metadata !687, metadata !42}
!687 = metadata !{i32 786480, null, metadata !"_AP_N", metadata !41, i64 17, null, i32 0, i32 0} ; [ DW_TAG_template_value_parameter ]
!688 = metadata !{i32 786478, i32 0, metadata !675, metadata !"ap_int_base", metadata !"ap_int_base", metadata !"", metadata !65, i32 1437, metadata !689, i1 false, i1 false, i32 0, i32 0, null, i32 256, i1 false, null, null, i32 0, metadata !37, i32 1437} ; [ DW_TAG_subprogram ]
!689 = metadata !{i32 786453, i32 0, metadata !"", i32 0, i32 0, i64 0, i64 0, i64 0, i32 0, null, metadata !690, i32 0, i32 0} ; [ DW_TAG_subroutine_type ]
!690 = metadata !{null, metadata !691}
!691 = metadata !{i32 786447, i32 0, metadata !"", i32 0, i32 0, i64 64, i64 64, i64 0, i32 64, metadata !675} ; [ DW_TAG_pointer_type ]
!692 = metadata !{i32 786478, i32 0, metadata !675, metadata !"ap_int_base", metadata !"ap_int_base", metadata !"", metadata !65, i32 1459, metadata !693, i1 false, i1 false, i32 0, i32 0, null, i32 384, i1 false, null, null, i32 0, metadata !37, i32 1459} ; [ DW_TAG_subprogram ]
!693 = metadata !{i32 786453, i32 0, metadata !"", i32 0, i32 0, i64 0, i64 0, i64 0, i32 0, null, metadata !694, i32 0, i32 0} ; [ DW_TAG_subroutine_type ]
!694 = metadata !{null, metadata !691, metadata !43}
!695 = metadata !{i32 786478, i32 0, metadata !675, metadata !"ap_int_base", metadata !"ap_int_base", metadata !"", metadata !65, i32 1460, metadata !696, i1 false, i1 false, i32 0, i32 0, null, i32 384, i1 false, null, null, i32 0, metadata !37, i32 1460} ; [ DW_TAG_subprogram ]
!696 = metadata !{i32 786453, i32 0, metadata !"", i32 0, i32 0, i64 0, i64 0, i64 0, i32 0, null, metadata !697, i32 0, i32 0} ; [ DW_TAG_subroutine_type ]
!697 = metadata !{null, metadata !691, metadata !99}
!698 = metadata !{i32 786478, i32 0, metadata !675, metadata !"ap_int_base", metadata !"ap_int_base", metadata !"", metadata !65, i32 1461, metadata !699, i1 false, i1 false, i32 0, i32 0, null, i32 384, i1 false, null, null, i32 0, metadata !37, i32 1461} ; [ DW_TAG_subprogram ]
!699 = metadata !{i32 786453, i32 0, metadata !"", i32 0, i32 0, i64 0, i64 0, i64 0, i32 0, null, metadata !700, i32 0, i32 0} ; [ DW_TAG_subroutine_type ]
!700 = metadata !{null, metadata !691, metadata !103}
!701 = metadata !{i32 786478, i32 0, metadata !675, metadata !"ap_int_base", metadata !"ap_int_base", metadata !"", metadata !65, i32 1462, metadata !702, i1 false, i1 false, i32 0, i32 0, null, i32 384, i1 false, null, null, i32 0, metadata !37, i32 1462} ; [ DW_TAG_subprogram ]
!702 = metadata !{i32 786453, i32 0, metadata !"", i32 0, i32 0, i64 0, i64 0, i64 0, i32 0, null, metadata !703, i32 0, i32 0} ; [ DW_TAG_subroutine_type ]
!703 = metadata !{null, metadata !691, metadata !107}
!704 = metadata !{i32 786478, i32 0, metadata !675, metadata !"ap_int_base", metadata !"ap_int_base", metadata !"", metadata !65, i32 1463, metadata !705, i1 false, i1 false, i32 0, i32 0, null, i32 384, i1 false, null, null, i32 0, metadata !37, i32 1463} ; [ DW_TAG_subprogram ]
!705 = metadata !{i32 786453, i32 0, metadata !"", i32 0, i32 0, i64 0, i64 0, i64 0, i32 0, null, metadata !706, i32 0, i32 0} ; [ DW_TAG_subroutine_type ]
!706 = metadata !{null, metadata !691, metadata !111}
!707 = metadata !{i32 786478, i32 0, metadata !675, metadata !"ap_int_base", metadata !"ap_int_base", metadata !"", metadata !65, i32 1464, metadata !708, i1 false, i1 false, i32 0, i32 0, null, i32 384, i1 false, null, null, i32 0, metadata !37, i32 1464} ; [ DW_TAG_subprogram ]
!708 = metadata !{i32 786453, i32 0, metadata !"", i32 0, i32 0, i64 0, i64 0, i64 0, i32 0, null, metadata !709, i32 0, i32 0} ; [ DW_TAG_subroutine_type ]
!709 = metadata !{null, metadata !691, metadata !41}
!710 = metadata !{i32 786478, i32 0, metadata !675, metadata !"ap_int_base", metadata !"ap_int_base", metadata !"", metadata !65, i32 1465, metadata !711, i1 false, i1 false, i32 0, i32 0, null, i32 384, i1 false, null, null, i32 0, metadata !37, i32 1465} ; [ DW_TAG_subprogram ]
!711 = metadata !{i32 786453, i32 0, metadata !"", i32 0, i32 0, i64 0, i64 0, i64 0, i32 0, null, metadata !712, i32 0, i32 0} ; [ DW_TAG_subroutine_type ]
!712 = metadata !{null, metadata !691, metadata !118}
!713 = metadata !{i32 786478, i32 0, metadata !675, metadata !"ap_int_base", metadata !"ap_int_base", metadata !"", metadata !65, i32 1466, metadata !714, i1 false, i1 false, i32 0, i32 0, null, i32 384, i1 false, null, null, i32 0, metadata !37, i32 1466} ; [ DW_TAG_subprogram ]
!714 = metadata !{i32 786453, i32 0, metadata !"", i32 0, i32 0, i64 0, i64 0, i64 0, i32 0, null, metadata !715, i32 0, i32 0} ; [ DW_TAG_subroutine_type ]
!715 = metadata !{null, metadata !691, metadata !122}
!716 = metadata !{i32 786478, i32 0, metadata !675, metadata !"ap_int_base", metadata !"ap_int_base", metadata !"", metadata !65, i32 1467, metadata !717, i1 false, i1 false, i32 0, i32 0, null, i32 384, i1 false, null, null, i32 0, metadata !37, i32 1467} ; [ DW_TAG_subprogram ]
!717 = metadata !{i32 786453, i32 0, metadata !"", i32 0, i32 0, i64 0, i64 0, i64 0, i32 0, null, metadata !718, i32 0, i32 0} ; [ DW_TAG_subroutine_type ]
!718 = metadata !{null, metadata !691, metadata !126}
!719 = metadata !{i32 786478, i32 0, metadata !675, metadata !"ap_int_base", metadata !"ap_int_base", metadata !"", metadata !65, i32 1468, metadata !720, i1 false, i1 false, i32 0, i32 0, null, i32 384, i1 false, null, null, i32 0, metadata !37, i32 1468} ; [ DW_TAG_subprogram ]
!720 = metadata !{i32 786453, i32 0, metadata !"", i32 0, i32 0, i64 0, i64 0, i64 0, i32 0, null, metadata !721, i32 0, i32 0} ; [ DW_TAG_subroutine_type ]
!721 = metadata !{null, metadata !691, metadata !130}
!722 = metadata !{i32 786478, i32 0, metadata !675, metadata !"ap_int_base", metadata !"ap_int_base", metadata !"", metadata !65, i32 1469, metadata !723, i1 false, i1 false, i32 0, i32 0, null, i32 384, i1 false, null, null, i32 0, metadata !37, i32 1469} ; [ DW_TAG_subprogram ]
!723 = metadata !{i32 786453, i32 0, metadata !"", i32 0, i32 0, i64 0, i64 0, i64 0, i32 0, null, metadata !724, i32 0, i32 0} ; [ DW_TAG_subroutine_type ]
!724 = metadata !{null, metadata !691, metadata !135}
!725 = metadata !{i32 786478, i32 0, metadata !675, metadata !"ap_int_base", metadata !"ap_int_base", metadata !"", metadata !65, i32 1470, metadata !726, i1 false, i1 false, i32 0, i32 0, null, i32 384, i1 false, null, null, i32 0, metadata !37, i32 1470} ; [ DW_TAG_subprogram ]
!726 = metadata !{i32 786453, i32 0, metadata !"", i32 0, i32 0, i64 0, i64 0, i64 0, i32 0, null, metadata !727, i32 0, i32 0} ; [ DW_TAG_subroutine_type ]
!727 = metadata !{null, metadata !691, metadata !153}
!728 = metadata !{i32 786478, i32 0, metadata !675, metadata !"ap_int_base", metadata !"ap_int_base", metadata !"", metadata !65, i32 1471, metadata !729, i1 false, i1 false, i32 0, i32 0, null, i32 384, i1 false, null, null, i32 0, metadata !37, i32 1471} ; [ DW_TAG_subprogram ]
!729 = metadata !{i32 786453, i32 0, metadata !"", i32 0, i32 0, i64 0, i64 0, i64 0, i32 0, null, metadata !730, i32 0, i32 0} ; [ DW_TAG_subroutine_type ]
!730 = metadata !{null, metadata !691, metadata !149}
!731 = metadata !{i32 786478, i32 0, metadata !675, metadata !"ap_int_base", metadata !"ap_int_base", metadata !"", metadata !65, i32 1498, metadata !732, i1 false, i1 false, i32 0, i32 0, null, i32 256, i1 false, null, null, i32 0, metadata !37, i32 1498} ; [ DW_TAG_subprogram ]
!732 = metadata !{i32 786453, i32 0, metadata !"", i32 0, i32 0, i64 0, i64 0, i64 0, i32 0, null, metadata !733, i32 0, i32 0} ; [ DW_TAG_subroutine_type ]
!733 = metadata !{null, metadata !691, metadata !140}
!734 = metadata !{i32 786478, i32 0, metadata !675, metadata !"ap_int_base", metadata !"ap_int_base", metadata !"", metadata !65, i32 1505, metadata !735, i1 false, i1 false, i32 0, i32 0, null, i32 256, i1 false, null, null, i32 0, metadata !37, i32 1505} ; [ DW_TAG_subprogram ]
!735 = metadata !{i32 786453, i32 0, metadata !"", i32 0, i32 0, i64 0, i64 0, i64 0, i32 0, null, metadata !736, i32 0, i32 0} ; [ DW_TAG_subroutine_type ]
!736 = metadata !{null, metadata !691, metadata !140, metadata !99}
!737 = metadata !{i32 786478, i32 0, metadata !675, metadata !"read", metadata !"read", metadata !"_ZNV11ap_int_baseILi17ELb1ELb1EE4readEv", metadata !65, i32 1526, metadata !738, i1 false, i1 false, i32 0, i32 0, null, i32 256, i1 false, null, null, i32 0, metadata !37, i32 1526} ; [ DW_TAG_subprogram ]
!738 = metadata !{i32 786453, i32 0, metadata !"", i32 0, i32 0, i64 0, i64 0, i64 0, i32 0, null, metadata !739, i32 0, i32 0} ; [ DW_TAG_subroutine_type ]
!739 = metadata !{metadata !675, metadata !740}
!740 = metadata !{i32 786447, i32 0, metadata !"", i32 0, i32 0, i64 64, i64 64, i64 0, i32 64, metadata !741} ; [ DW_TAG_pointer_type ]
!741 = metadata !{i32 786485, null, metadata !"", null, i32 0, i64 0, i64 0, i64 0, i32 0, metadata !675} ; [ DW_TAG_volatile_type ]
!742 = metadata !{i32 786478, i32 0, metadata !675, metadata !"write", metadata !"write", metadata !"_ZNV11ap_int_baseILi17ELb1ELb1EE5writeERKS0_", metadata !65, i32 1532, metadata !743, i1 false, i1 false, i32 0, i32 0, null, i32 256, i1 false, null, null, i32 0, metadata !37, i32 1532} ; [ DW_TAG_subprogram ]
!743 = metadata !{i32 786453, i32 0, metadata !"", i32 0, i32 0, i64 0, i64 0, i64 0, i32 0, null, metadata !744, i32 0, i32 0} ; [ DW_TAG_subroutine_type ]
!744 = metadata !{null, metadata !740, metadata !745}
!745 = metadata !{i32 786448, null, null, null, i32 0, i64 0, i64 0, i64 0, i32 0, metadata !746} ; [ DW_TAG_reference_type ]
!746 = metadata !{i32 786470, null, metadata !"", null, i32 0, i64 0, i64 0, i64 0, i32 0, metadata !675} ; [ DW_TAG_const_type ]
!747 = metadata !{i32 786478, i32 0, metadata !675, metadata !"operator=", metadata !"operator=", metadata !"_ZNV11ap_int_baseILi17ELb1ELb1EEaSERVKS0_", metadata !65, i32 1544, metadata !748, i1 false, i1 false, i32 0, i32 0, null, i32 256, i1 false, null, null, i32 0, metadata !37, i32 1544} ; [ DW_TAG_subprogram ]
!748 = metadata !{i32 786453, i32 0, metadata !"", i32 0, i32 0, i64 0, i64 0, i64 0, i32 0, null, metadata !749, i32 0, i32 0} ; [ DW_TAG_subroutine_type ]
!749 = metadata !{null, metadata !740, metadata !750}
!750 = metadata !{i32 786448, null, null, null, i32 0, i64 0, i64 0, i64 0, i32 0, metadata !751} ; [ DW_TAG_reference_type ]
!751 = metadata !{i32 786470, null, metadata !"", null, i32 0, i64 0, i64 0, i64 0, i32 0, metadata !741} ; [ DW_TAG_const_type ]
!752 = metadata !{i32 786478, i32 0, metadata !675, metadata !"operator=", metadata !"operator=", metadata !"_ZNV11ap_int_baseILi17ELb1ELb1EEaSERKS0_", metadata !65, i32 1553, metadata !743, i1 false, i1 false, i32 0, i32 0, null, i32 256, i1 false, null, null, i32 0, metadata !37, i32 1553} ; [ DW_TAG_subprogram ]
!753 = metadata !{i32 786478, i32 0, metadata !675, metadata !"operator=", metadata !"operator=", metadata !"_ZN11ap_int_baseILi17ELb1ELb1EEaSERVKS0_", metadata !65, i32 1576, metadata !754, i1 false, i1 false, i32 0, i32 0, null, i32 256, i1 false, null, null, i32 0, metadata !37, i32 1576} ; [ DW_TAG_subprogram ]
!754 = metadata !{i32 786453, i32 0, metadata !"", i32 0, i32 0, i64 0, i64 0, i64 0, i32 0, null, metadata !755, i32 0, i32 0} ; [ DW_TAG_subroutine_type ]
!755 = metadata !{metadata !756, metadata !691, metadata !750}
!756 = metadata !{i32 786448, null, null, null, i32 0, i64 0, i64 0, i64 0, i32 0, metadata !675} ; [ DW_TAG_reference_type ]
!757 = metadata !{i32 786478, i32 0, metadata !675, metadata !"operator=", metadata !"operator=", metadata !"_ZN11ap_int_baseILi17ELb1ELb1EEaSERKS0_", metadata !65, i32 1581, metadata !758, i1 false, i1 false, i32 0, i32 0, null, i32 256, i1 false, null, null, i32 0, metadata !37, i32 1581} ; [ DW_TAG_subprogram ]
!758 = metadata !{i32 786453, i32 0, metadata !"", i32 0, i32 0, i64 0, i64 0, i64 0, i32 0, null, metadata !759, i32 0, i32 0} ; [ DW_TAG_subroutine_type ]
!759 = metadata !{metadata !756, metadata !691, metadata !745}
!760 = metadata !{i32 786478, i32 0, metadata !675, metadata !"operator=", metadata !"operator=", metadata !"_ZN11ap_int_baseILi17ELb1ELb1EEaSEPKc", metadata !65, i32 1585, metadata !761, i1 false, i1 false, i32 0, i32 0, null, i32 256, i1 false, null, null, i32 0, metadata !37, i32 1585} ; [ DW_TAG_subprogram ]
!761 = metadata !{i32 786453, i32 0, metadata !"", i32 0, i32 0, i64 0, i64 0, i64 0, i32 0, null, metadata !762, i32 0, i32 0} ; [ DW_TAG_subroutine_type ]
!762 = metadata !{metadata !756, metadata !691, metadata !140}
!763 = metadata !{i32 786478, i32 0, metadata !675, metadata !"set", metadata !"set", metadata !"_ZN11ap_int_baseILi17ELb1ELb1EE3setEPKca", metadata !65, i32 1593, metadata !764, i1 false, i1 false, i32 0, i32 0, null, i32 256, i1 false, null, null, i32 0, metadata !37, i32 1593} ; [ DW_TAG_subprogram ]
!764 = metadata !{i32 786453, i32 0, metadata !"", i32 0, i32 0, i64 0, i64 0, i64 0, i32 0, null, metadata !765, i32 0, i32 0} ; [ DW_TAG_subroutine_type ]
!765 = metadata !{metadata !756, metadata !691, metadata !140, metadata !99}
!766 = metadata !{i32 786478, i32 0, metadata !675, metadata !"operator=", metadata !"operator=", metadata !"_ZN11ap_int_baseILi17ELb1ELb1EEaSEc", metadata !65, i32 1607, metadata !767, i1 false, i1 false, i32 0, i32 0, null, i32 256, i1 false, null, null, i32 0, metadata !37, i32 1607} ; [ DW_TAG_subprogram ]
!767 = metadata !{i32 786453, i32 0, metadata !"", i32 0, i32 0, i64 0, i64 0, i64 0, i32 0, null, metadata !768, i32 0, i32 0} ; [ DW_TAG_subroutine_type ]
!768 = metadata !{metadata !756, metadata !691, metadata !95}
!769 = metadata !{i32 786478, i32 0, metadata !675, metadata !"operator=", metadata !"operator=", metadata !"_ZN11ap_int_baseILi17ELb1ELb1EEaSEh", metadata !65, i32 1608, metadata !770, i1 false, i1 false, i32 0, i32 0, null, i32 256, i1 false, null, null, i32 0, metadata !37, i32 1608} ; [ DW_TAG_subprogram ]
!770 = metadata !{i32 786453, i32 0, metadata !"", i32 0, i32 0, i64 0, i64 0, i64 0, i32 0, null, metadata !771, i32 0, i32 0} ; [ DW_TAG_subroutine_type ]
!771 = metadata !{metadata !756, metadata !691, metadata !103}
!772 = metadata !{i32 786478, i32 0, metadata !675, metadata !"operator=", metadata !"operator=", metadata !"_ZN11ap_int_baseILi17ELb1ELb1EEaSEs", metadata !65, i32 1609, metadata !773, i1 false, i1 false, i32 0, i32 0, null, i32 256, i1 false, null, null, i32 0, metadata !37, i32 1609} ; [ DW_TAG_subprogram ]
!773 = metadata !{i32 786453, i32 0, metadata !"", i32 0, i32 0, i64 0, i64 0, i64 0, i32 0, null, metadata !774, i32 0, i32 0} ; [ DW_TAG_subroutine_type ]
!774 = metadata !{metadata !756, metadata !691, metadata !107}
!775 = metadata !{i32 786478, i32 0, metadata !675, metadata !"operator=", metadata !"operator=", metadata !"_ZN11ap_int_baseILi17ELb1ELb1EEaSEt", metadata !65, i32 1610, metadata !776, i1 false, i1 false, i32 0, i32 0, null, i32 256, i1 false, null, null, i32 0, metadata !37, i32 1610} ; [ DW_TAG_subprogram ]
!776 = metadata !{i32 786453, i32 0, metadata !"", i32 0, i32 0, i64 0, i64 0, i64 0, i32 0, null, metadata !777, i32 0, i32 0} ; [ DW_TAG_subroutine_type ]
!777 = metadata !{metadata !756, metadata !691, metadata !111}
!778 = metadata !{i32 786478, i32 0, metadata !675, metadata !"operator=", metadata !"operator=", metadata !"_ZN11ap_int_baseILi17ELb1ELb1EEaSEi", metadata !65, i32 1611, metadata !779, i1 false, i1 false, i32 0, i32 0, null, i32 256, i1 false, null, null, i32 0, metadata !37, i32 1611} ; [ DW_TAG_subprogram ]
!779 = metadata !{i32 786453, i32 0, metadata !"", i32 0, i32 0, i64 0, i64 0, i64 0, i32 0, null, metadata !780, i32 0, i32 0} ; [ DW_TAG_subroutine_type ]
!780 = metadata !{metadata !756, metadata !691, metadata !41}
!781 = metadata !{i32 786478, i32 0, metadata !675, metadata !"operator=", metadata !"operator=", metadata !"_ZN11ap_int_baseILi17ELb1ELb1EEaSEj", metadata !65, i32 1612, metadata !782, i1 false, i1 false, i32 0, i32 0, null, i32 256, i1 false, null, null, i32 0, metadata !37, i32 1612} ; [ DW_TAG_subprogram ]
!782 = metadata !{i32 786453, i32 0, metadata !"", i32 0, i32 0, i64 0, i64 0, i64 0, i32 0, null, metadata !783, i32 0, i32 0} ; [ DW_TAG_subroutine_type ]
!783 = metadata !{metadata !756, metadata !691, metadata !118}
!784 = metadata !{i32 786478, i32 0, metadata !675, metadata !"operator=", metadata !"operator=", metadata !"_ZN11ap_int_baseILi17ELb1ELb1EEaSEx", metadata !65, i32 1613, metadata !785, i1 false, i1 false, i32 0, i32 0, null, i32 256, i1 false, null, null, i32 0, metadata !37, i32 1613} ; [ DW_TAG_subprogram ]
!785 = metadata !{i32 786453, i32 0, metadata !"", i32 0, i32 0, i64 0, i64 0, i64 0, i32 0, null, metadata !786, i32 0, i32 0} ; [ DW_TAG_subroutine_type ]
!786 = metadata !{metadata !756, metadata !691, metadata !130}
!787 = metadata !{i32 786478, i32 0, metadata !675, metadata !"operator=", metadata !"operator=", metadata !"_ZN11ap_int_baseILi17ELb1ELb1EEaSEy", metadata !65, i32 1614, metadata !788, i1 false, i1 false, i32 0, i32 0, null, i32 256, i1 false, null, null, i32 0, metadata !37, i32 1614} ; [ DW_TAG_subprogram ]
!788 = metadata !{i32 786453, i32 0, metadata !"", i32 0, i32 0, i64 0, i64 0, i64 0, i32 0, null, metadata !789, i32 0, i32 0} ; [ DW_TAG_subroutine_type ]
!789 = metadata !{metadata !756, metadata !691, metadata !135}
!790 = metadata !{i32 786478, i32 0, metadata !675, metadata !"operator int", metadata !"operator int", metadata !"_ZNK11ap_int_baseILi17ELb1ELb1EEcviEv", metadata !65, i32 1652, metadata !791, i1 false, i1 false, i32 0, i32 0, null, i32 256, i1 false, null, null, i32 0, metadata !37, i32 1652} ; [ DW_TAG_subprogram ]
!791 = metadata !{i32 786453, i32 0, metadata !"", i32 0, i32 0, i64 0, i64 0, i64 0, i32 0, null, metadata !792, i32 0, i32 0} ; [ DW_TAG_subroutine_type ]
!792 = metadata !{metadata !793, metadata !798}
!793 = metadata !{i32 786454, metadata !675, metadata !"RetType", metadata !65, i32 1401, i64 0, i64 0, i64 0, i32 0, metadata !794} ; [ DW_TAG_typedef ]
!794 = metadata !{i32 786454, metadata !795, metadata !"Type", metadata !65, i32 1378, i64 0, i64 0, i64 0, i32 0, metadata !41} ; [ DW_TAG_typedef ]
!795 = metadata !{i32 786434, null, metadata !"retval<3, true>", metadata !65, i32 1377, i64 8, i64 8, i32 0, i32 0, null, metadata !602, i32 0, null, metadata !796} ; [ DW_TAG_class_type ]
!796 = metadata !{metadata !797, metadata !42}
!797 = metadata !{i32 786480, null, metadata !"_AP_N", metadata !41, i64 3, null, i32 0, i32 0} ; [ DW_TAG_template_value_parameter ]
!798 = metadata !{i32 786447, i32 0, metadata !"", i32 0, i32 0, i64 64, i64 64, i64 0, i32 64, metadata !746} ; [ DW_TAG_pointer_type ]
!799 = metadata !{i32 786478, i32 0, metadata !675, metadata !"to_bool", metadata !"to_bool", metadata !"_ZNK11ap_int_baseILi17ELb1ELb1EE7to_boolEv", metadata !65, i32 1658, metadata !800, i1 false, i1 false, i32 0, i32 0, null, i32 256, i1 false, null, null, i32 0, metadata !37, i32 1658} ; [ DW_TAG_subprogram ]
!800 = metadata !{i32 786453, i32 0, metadata !"", i32 0, i32 0, i64 0, i64 0, i64 0, i32 0, null, metadata !801, i32 0, i32 0} ; [ DW_TAG_subroutine_type ]
!801 = metadata !{metadata !43, metadata !798}
!802 = metadata !{i32 786478, i32 0, metadata !675, metadata !"to_uchar", metadata !"to_uchar", metadata !"_ZNK11ap_int_baseILi17ELb1ELb1EE8to_ucharEv", metadata !65, i32 1659, metadata !800, i1 false, i1 false, i32 0, i32 0, null, i32 256, i1 false, null, null, i32 0, metadata !37, i32 1659} ; [ DW_TAG_subprogram ]
!803 = metadata !{i32 786478, i32 0, metadata !675, metadata !"to_char", metadata !"to_char", metadata !"_ZNK11ap_int_baseILi17ELb1ELb1EE7to_charEv", metadata !65, i32 1660, metadata !800, i1 false, i1 false, i32 0, i32 0, null, i32 256, i1 false, null, null, i32 0, metadata !37, i32 1660} ; [ DW_TAG_subprogram ]
!804 = metadata !{i32 786478, i32 0, metadata !675, metadata !"to_ushort", metadata !"to_ushort", metadata !"_ZNK11ap_int_baseILi17ELb1ELb1EE9to_ushortEv", metadata !65, i32 1661, metadata !800, i1 false, i1 false, i32 0, i32 0, null, i32 256, i1 false, null, null, i32 0, metadata !37, i32 1661} ; [ DW_TAG_subprogram ]
!805 = metadata !{i32 786478, i32 0, metadata !675, metadata !"to_short", metadata !"to_short", metadata !"_ZNK11ap_int_baseILi17ELb1ELb1EE8to_shortEv", metadata !65, i32 1662, metadata !800, i1 false, i1 false, i32 0, i32 0, null, i32 256, i1 false, null, null, i32 0, metadata !37, i32 1662} ; [ DW_TAG_subprogram ]
!806 = metadata !{i32 786478, i32 0, metadata !675, metadata !"to_int", metadata !"to_int", metadata !"_ZNK11ap_int_baseILi17ELb1ELb1EE6to_intEv", metadata !65, i32 1663, metadata !807, i1 false, i1 false, i32 0, i32 0, null, i32 256, i1 false, null, null, i32 0, metadata !37, i32 1663} ; [ DW_TAG_subprogram ]
!807 = metadata !{i32 786453, i32 0, metadata !"", i32 0, i32 0, i64 0, i64 0, i64 0, i32 0, null, metadata !808, i32 0, i32 0} ; [ DW_TAG_subroutine_type ]
!808 = metadata !{metadata !41, metadata !798}
!809 = metadata !{i32 786478, i32 0, metadata !675, metadata !"to_uint", metadata !"to_uint", metadata !"_ZNK11ap_int_baseILi17ELb1ELb1EE7to_uintEv", metadata !65, i32 1664, metadata !810, i1 false, i1 false, i32 0, i32 0, null, i32 256, i1 false, null, null, i32 0, metadata !37, i32 1664} ; [ DW_TAG_subprogram ]
!810 = metadata !{i32 786453, i32 0, metadata !"", i32 0, i32 0, i64 0, i64 0, i64 0, i32 0, null, metadata !811, i32 0, i32 0} ; [ DW_TAG_subroutine_type ]
!811 = metadata !{metadata !118, metadata !798}
!812 = metadata !{i32 786478, i32 0, metadata !675, metadata !"to_long", metadata !"to_long", metadata !"_ZNK11ap_int_baseILi17ELb1ELb1EE7to_longEv", metadata !65, i32 1665, metadata !813, i1 false, i1 false, i32 0, i32 0, null, i32 256, i1 false, null, null, i32 0, metadata !37, i32 1665} ; [ DW_TAG_subprogram ]
!813 = metadata !{i32 786453, i32 0, metadata !"", i32 0, i32 0, i64 0, i64 0, i64 0, i32 0, null, metadata !814, i32 0, i32 0} ; [ DW_TAG_subroutine_type ]
!814 = metadata !{metadata !122, metadata !798}
!815 = metadata !{i32 786478, i32 0, metadata !675, metadata !"to_ulong", metadata !"to_ulong", metadata !"_ZNK11ap_int_baseILi17ELb1ELb1EE8to_ulongEv", metadata !65, i32 1666, metadata !816, i1 false, i1 false, i32 0, i32 0, null, i32 256, i1 false, null, null, i32 0, metadata !37, i32 1666} ; [ DW_TAG_subprogram ]
!816 = metadata !{i32 786453, i32 0, metadata !"", i32 0, i32 0, i64 0, i64 0, i64 0, i32 0, null, metadata !817, i32 0, i32 0} ; [ DW_TAG_subroutine_type ]
!817 = metadata !{metadata !126, metadata !798}
!818 = metadata !{i32 786478, i32 0, metadata !675, metadata !"to_int64", metadata !"to_int64", metadata !"_ZNK11ap_int_baseILi17ELb1ELb1EE8to_int64Ev", metadata !65, i32 1667, metadata !819, i1 false, i1 false, i32 0, i32 0, null, i32 256, i1 false, null, null, i32 0, metadata !37, i32 1667} ; [ DW_TAG_subprogram ]
!819 = metadata !{i32 786453, i32 0, metadata !"", i32 0, i32 0, i64 0, i64 0, i64 0, i32 0, null, metadata !820, i32 0, i32 0} ; [ DW_TAG_subroutine_type ]
!820 = metadata !{metadata !130, metadata !798}
!821 = metadata !{i32 786478, i32 0, metadata !675, metadata !"to_uint64", metadata !"to_uint64", metadata !"_ZNK11ap_int_baseILi17ELb1ELb1EE9to_uint64Ev", metadata !65, i32 1668, metadata !822, i1 false, i1 false, i32 0, i32 0, null, i32 256, i1 false, null, null, i32 0, metadata !37, i32 1668} ; [ DW_TAG_subprogram ]
!822 = metadata !{i32 786453, i32 0, metadata !"", i32 0, i32 0, i64 0, i64 0, i64 0, i32 0, null, metadata !823, i32 0, i32 0} ; [ DW_TAG_subroutine_type ]
!823 = metadata !{metadata !135, metadata !798}
!824 = metadata !{i32 786478, i32 0, metadata !675, metadata !"to_double", metadata !"to_double", metadata !"_ZNK11ap_int_baseILi17ELb1ELb1EE9to_doubleEv", metadata !65, i32 1669, metadata !825, i1 false, i1 false, i32 0, i32 0, null, i32 256, i1 false, null, null, i32 0, metadata !37, i32 1669} ; [ DW_TAG_subprogram ]
!825 = metadata !{i32 786453, i32 0, metadata !"", i32 0, i32 0, i64 0, i64 0, i64 0, i32 0, null, metadata !826, i32 0, i32 0} ; [ DW_TAG_subroutine_type ]
!826 = metadata !{metadata !149, metadata !798}
!827 = metadata !{i32 786478, i32 0, metadata !675, metadata !"length", metadata !"length", metadata !"_ZNK11ap_int_baseILi17ELb1ELb1EE6lengthEv", metadata !65, i32 1682, metadata !807, i1 false, i1 false, i32 0, i32 0, null, i32 256, i1 false, null, null, i32 0, metadata !37, i32 1682} ; [ DW_TAG_subprogram ]
!828 = metadata !{i32 786478, i32 0, metadata !675, metadata !"length", metadata !"length", metadata !"_ZNVK11ap_int_baseILi17ELb1ELb1EE6lengthEv", metadata !65, i32 1683, metadata !829, i1 false, i1 false, i32 0, i32 0, null, i32 256, i1 false, null, null, i32 0, metadata !37, i32 1683} ; [ DW_TAG_subprogram ]
!829 = metadata !{i32 786453, i32 0, metadata !"", i32 0, i32 0, i64 0, i64 0, i64 0, i32 0, null, metadata !830, i32 0, i32 0} ; [ DW_TAG_subroutine_type ]
!830 = metadata !{metadata !41, metadata !831}
!831 = metadata !{i32 786447, i32 0, metadata !"", i32 0, i32 0, i64 64, i64 64, i64 0, i32 64, metadata !751} ; [ DW_TAG_pointer_type ]
!832 = metadata !{i32 786478, i32 0, metadata !675, metadata !"reverse", metadata !"reverse", metadata !"_ZN11ap_int_baseILi17ELb1ELb1EE7reverseEv", metadata !65, i32 1688, metadata !833, i1 false, i1 false, i32 0, i32 0, null, i32 256, i1 false, null, null, i32 0, metadata !37, i32 1688} ; [ DW_TAG_subprogram ]
!833 = metadata !{i32 786453, i32 0, metadata !"", i32 0, i32 0, i64 0, i64 0, i64 0, i32 0, null, metadata !834, i32 0, i32 0} ; [ DW_TAG_subroutine_type ]
!834 = metadata !{metadata !756, metadata !691}
!835 = metadata !{i32 786478, i32 0, metadata !675, metadata !"iszero", metadata !"iszero", metadata !"_ZNK11ap_int_baseILi17ELb1ELb1EE6iszeroEv", metadata !65, i32 1694, metadata !800, i1 false, i1 false, i32 0, i32 0, null, i32 256, i1 false, null, null, i32 0, metadata !37, i32 1694} ; [ DW_TAG_subprogram ]
!836 = metadata !{i32 786478, i32 0, metadata !675, metadata !"is_zero", metadata !"is_zero", metadata !"_ZNK11ap_int_baseILi17ELb1ELb1EE7is_zeroEv", metadata !65, i32 1699, metadata !800, i1 false, i1 false, i32 0, i32 0, null, i32 256, i1 false, null, null, i32 0, metadata !37, i32 1699} ; [ DW_TAG_subprogram ]
!837 = metadata !{i32 786478, i32 0, metadata !675, metadata !"sign", metadata !"sign", metadata !"_ZNK11ap_int_baseILi17ELb1ELb1EE4signEv", metadata !65, i32 1704, metadata !800, i1 false, i1 false, i32 0, i32 0, null, i32 256, i1 false, null, null, i32 0, metadata !37, i32 1704} ; [ DW_TAG_subprogram ]
!838 = metadata !{i32 786478, i32 0, metadata !675, metadata !"clear", metadata !"clear", metadata !"_ZN11ap_int_baseILi17ELb1ELb1EE5clearEi", metadata !65, i32 1712, metadata !708, i1 false, i1 false, i32 0, i32 0, null, i32 256, i1 false, null, null, i32 0, metadata !37, i32 1712} ; [ DW_TAG_subprogram ]
!839 = metadata !{i32 786478, i32 0, metadata !675, metadata !"invert", metadata !"invert", metadata !"_ZN11ap_int_baseILi17ELb1ELb1EE6invertEi", metadata !65, i32 1718, metadata !708, i1 false, i1 false, i32 0, i32 0, null, i32 256, i1 false, null, null, i32 0, metadata !37, i32 1718} ; [ DW_TAG_subprogram ]
!840 = metadata !{i32 786478, i32 0, metadata !675, metadata !"test", metadata !"test", metadata !"_ZNK11ap_int_baseILi17ELb1ELb1EE4testEi", metadata !65, i32 1726, metadata !841, i1 false, i1 false, i32 0, i32 0, null, i32 256, i1 false, null, null, i32 0, metadata !37, i32 1726} ; [ DW_TAG_subprogram ]
!841 = metadata !{i32 786453, i32 0, metadata !"", i32 0, i32 0, i64 0, i64 0, i64 0, i32 0, null, metadata !842, i32 0, i32 0} ; [ DW_TAG_subroutine_type ]
!842 = metadata !{metadata !43, metadata !798, metadata !41}
!843 = metadata !{i32 786478, i32 0, metadata !675, metadata !"set", metadata !"set", metadata !"_ZN11ap_int_baseILi17ELb1ELb1EE3setEi", metadata !65, i32 1732, metadata !708, i1 false, i1 false, i32 0, i32 0, null, i32 256, i1 false, null, null, i32 0, metadata !37, i32 1732} ; [ DW_TAG_subprogram ]
!844 = metadata !{i32 786478, i32 0, metadata !675, metadata !"set", metadata !"set", metadata !"_ZN11ap_int_baseILi17ELb1ELb1EE3setEib", metadata !65, i32 1738, metadata !845, i1 false, i1 false, i32 0, i32 0, null, i32 256, i1 false, null, null, i32 0, metadata !37, i32 1738} ; [ DW_TAG_subprogram ]
!845 = metadata !{i32 786453, i32 0, metadata !"", i32 0, i32 0, i64 0, i64 0, i64 0, i32 0, null, metadata !846, i32 0, i32 0} ; [ DW_TAG_subroutine_type ]
!846 = metadata !{null, metadata !691, metadata !41, metadata !43}
!847 = metadata !{i32 786478, i32 0, metadata !675, metadata !"lrotate", metadata !"lrotate", metadata !"_ZN11ap_int_baseILi17ELb1ELb1EE7lrotateEi", metadata !65, i32 1745, metadata !708, i1 false, i1 false, i32 0, i32 0, null, i32 256, i1 false, null, null, i32 0, metadata !37, i32 1745} ; [ DW_TAG_subprogram ]
!848 = metadata !{i32 786478, i32 0, metadata !675, metadata !"rrotate", metadata !"rrotate", metadata !"_ZN11ap_int_baseILi17ELb1ELb1EE7rrotateEi", metadata !65, i32 1754, metadata !708, i1 false, i1 false, i32 0, i32 0, null, i32 256, i1 false, null, null, i32 0, metadata !37, i32 1754} ; [ DW_TAG_subprogram ]
!849 = metadata !{i32 786478, i32 0, metadata !675, metadata !"set_bit", metadata !"set_bit", metadata !"_ZN11ap_int_baseILi17ELb1ELb1EE7set_bitEib", metadata !65, i32 1762, metadata !845, i1 false, i1 false, i32 0, i32 0, null, i32 256, i1 false, null, null, i32 0, metadata !37, i32 1762} ; [ DW_TAG_subprogram ]
!850 = metadata !{i32 786478, i32 0, metadata !675, metadata !"get_bit", metadata !"get_bit", metadata !"_ZNK11ap_int_baseILi17ELb1ELb1EE7get_bitEi", metadata !65, i32 1767, metadata !841, i1 false, i1 false, i32 0, i32 0, null, i32 256, i1 false, null, null, i32 0, metadata !37, i32 1767} ; [ DW_TAG_subprogram ]
!851 = metadata !{i32 786478, i32 0, metadata !675, metadata !"b_not", metadata !"b_not", metadata !"_ZN11ap_int_baseILi17ELb1ELb1EE5b_notEv", metadata !65, i32 1772, metadata !689, i1 false, i1 false, i32 0, i32 0, null, i32 256, i1 false, null, null, i32 0, metadata !37, i32 1772} ; [ DW_TAG_subprogram ]
!852 = metadata !{i32 786478, i32 0, metadata !675, metadata !"countLeadingZeros", metadata !"countLeadingZeros", metadata !"_ZN11ap_int_baseILi17ELb1ELb1EE17countLeadingZerosEv", metadata !65, i32 1779, metadata !853, i1 false, i1 false, i32 0, i32 0, null, i32 256, i1 false, null, null, i32 0, metadata !37, i32 1779} ; [ DW_TAG_subprogram ]
!853 = metadata !{i32 786453, i32 0, metadata !"", i32 0, i32 0, i64 0, i64 0, i64 0, i32 0, null, metadata !854, i32 0, i32 0} ; [ DW_TAG_subroutine_type ]
!854 = metadata !{metadata !41, metadata !691}
!855 = metadata !{i32 786478, i32 0, metadata !675, metadata !"operator++", metadata !"operator++", metadata !"_ZN11ap_int_baseILi17ELb1ELb1EEppEv", metadata !65, i32 1836, metadata !833, i1 false, i1 false, i32 0, i32 0, null, i32 256, i1 false, null, null, i32 0, metadata !37, i32 1836} ; [ DW_TAG_subprogram ]
!856 = metadata !{i32 786478, i32 0, metadata !675, metadata !"operator--", metadata !"operator--", metadata !"_ZN11ap_int_baseILi17ELb1ELb1EEmmEv", metadata !65, i32 1840, metadata !833, i1 false, i1 false, i32 0, i32 0, null, i32 256, i1 false, null, null, i32 0, metadata !37, i32 1840} ; [ DW_TAG_subprogram ]
!857 = metadata !{i32 786478, i32 0, metadata !675, metadata !"operator++", metadata !"operator++", metadata !"_ZN11ap_int_baseILi17ELb1ELb1EEppEi", metadata !65, i32 1848, metadata !858, i1 false, i1 false, i32 0, i32 0, null, i32 256, i1 false, null, null, i32 0, metadata !37, i32 1848} ; [ DW_TAG_subprogram ]
!858 = metadata !{i32 786453, i32 0, metadata !"", i32 0, i32 0, i64 0, i64 0, i64 0, i32 0, null, metadata !859, i32 0, i32 0} ; [ DW_TAG_subroutine_type ]
!859 = metadata !{metadata !746, metadata !691, metadata !41}
!860 = metadata !{i32 786478, i32 0, metadata !675, metadata !"operator--", metadata !"operator--", metadata !"_ZN11ap_int_baseILi17ELb1ELb1EEmmEi", metadata !65, i32 1853, metadata !858, i1 false, i1 false, i32 0, i32 0, null, i32 256, i1 false, null, null, i32 0, metadata !37, i32 1853} ; [ DW_TAG_subprogram ]
!861 = metadata !{i32 786478, i32 0, metadata !675, metadata !"operator+", metadata !"operator+", metadata !"_ZNK11ap_int_baseILi17ELb1ELb1EEpsEv", metadata !65, i32 1862, metadata !862, i1 false, i1 false, i32 0, i32 0, null, i32 256, i1 false, null, null, i32 0, metadata !37, i32 1862} ; [ DW_TAG_subprogram ]
!862 = metadata !{i32 786453, i32 0, metadata !"", i32 0, i32 0, i64 0, i64 0, i64 0, i32 0, null, metadata !863, i32 0, i32 0} ; [ DW_TAG_subroutine_type ]
!863 = metadata !{metadata !675, metadata !798}
!864 = metadata !{i32 786478, i32 0, metadata !675, metadata !"operator!", metadata !"operator!", metadata !"_ZNK11ap_int_baseILi17ELb1ELb1EEntEv", metadata !65, i32 1868, metadata !800, i1 false, i1 false, i32 0, i32 0, null, i32 256, i1 false, null, null, i32 0, metadata !37, i32 1868} ; [ DW_TAG_subprogram ]
!865 = metadata !{i32 786478, i32 0, metadata !675, metadata !"operator-", metadata !"operator-", metadata !"_ZNK11ap_int_baseILi17ELb1ELb1EEngEv", metadata !65, i32 1873, metadata !866, i1 false, i1 false, i32 0, i32 0, null, i32 256, i1 false, null, null, i32 0, metadata !37, i32 1873} ; [ DW_TAG_subprogram ]
!866 = metadata !{i32 786453, i32 0, metadata !"", i32 0, i32 0, i64 0, i64 0, i64 0, i32 0, null, metadata !867, i32 0, i32 0} ; [ DW_TAG_subroutine_type ]
!867 = metadata !{metadata !868, metadata !798}
!868 = metadata !{i32 786434, null, metadata !"ap_int_base<18, true, true>", metadata !65, i32 649, i32 0, i32 0, i32 0, i32 4, null, null, i32 0} ; [ DW_TAG_class_type ]
!869 = metadata !{i32 786478, i32 0, metadata !675, metadata !"range", metadata !"range", metadata !"_ZN11ap_int_baseILi17ELb1ELb1EE5rangeEii", metadata !65, i32 2003, metadata !870, i1 false, i1 false, i32 0, i32 0, null, i32 256, i1 false, null, null, i32 0, metadata !37, i32 2003} ; [ DW_TAG_subprogram ]
!870 = metadata !{i32 786453, i32 0, metadata !"", i32 0, i32 0, i64 0, i64 0, i64 0, i32 0, null, metadata !871, i32 0, i32 0} ; [ DW_TAG_subroutine_type ]
!871 = metadata !{metadata !872, metadata !691, metadata !41, metadata !41}
!872 = metadata !{i32 786434, null, metadata !"ap_range_ref<17, true>", metadata !65, i32 922, i32 0, i32 0, i32 0, i32 4, null, null, i32 0} ; [ DW_TAG_class_type ]
!873 = metadata !{i32 786478, i32 0, metadata !675, metadata !"operator()", metadata !"operator()", metadata !"_ZN11ap_int_baseILi17ELb1ELb1EEclEii", metadata !65, i32 2009, metadata !870, i1 false, i1 false, i32 0, i32 0, null, i32 256, i1 false, null, null, i32 0, metadata !37, i32 2009} ; [ DW_TAG_subprogram ]
!874 = metadata !{i32 786478, i32 0, metadata !675, metadata !"range", metadata !"range", metadata !"_ZNK11ap_int_baseILi17ELb1ELb1EE5rangeEii", metadata !65, i32 2015, metadata !875, i1 false, i1 false, i32 0, i32 0, null, i32 256, i1 false, null, null, i32 0, metadata !37, i32 2015} ; [ DW_TAG_subprogram ]
!875 = metadata !{i32 786453, i32 0, metadata !"", i32 0, i32 0, i64 0, i64 0, i64 0, i32 0, null, metadata !876, i32 0, i32 0} ; [ DW_TAG_subroutine_type ]
!876 = metadata !{metadata !872, metadata !798, metadata !41, metadata !41}
!877 = metadata !{i32 786478, i32 0, metadata !675, metadata !"operator()", metadata !"operator()", metadata !"_ZNK11ap_int_baseILi17ELb1ELb1EEclEii", metadata !65, i32 2021, metadata !875, i1 false, i1 false, i32 0, i32 0, null, i32 256, i1 false, null, null, i32 0, metadata !37, i32 2021} ; [ DW_TAG_subprogram ]
!878 = metadata !{i32 786478, i32 0, metadata !675, metadata !"operator[]", metadata !"operator[]", metadata !"_ZN11ap_int_baseILi17ELb1ELb1EEixEi", metadata !65, i32 2040, metadata !879, i1 false, i1 false, i32 0, i32 0, null, i32 256, i1 false, null, null, i32 0, metadata !37, i32 2040} ; [ DW_TAG_subprogram ]
!879 = metadata !{i32 786453, i32 0, metadata !"", i32 0, i32 0, i64 0, i64 0, i64 0, i32 0, null, metadata !880, i32 0, i32 0} ; [ DW_TAG_subroutine_type ]
!880 = metadata !{metadata !881, metadata !691, metadata !41}
!881 = metadata !{i32 786434, null, metadata !"ap_bit_ref<17, true>", metadata !65, i32 1192, i64 128, i64 64, i32 0, i32 0, null, metadata !882, i32 0, null, metadata !915} ; [ DW_TAG_class_type ]
!882 = metadata !{metadata !883, metadata !884, metadata !885, metadata !891, metadata !895, metadata !899, metadata !900, metadata !904, metadata !907, metadata !908, metadata !911, metadata !912}
!883 = metadata !{i32 786445, metadata !881, metadata !"d_bv", metadata !65, i32 1193, i64 64, i64 64, i64 0, i32 0, metadata !756} ; [ DW_TAG_member ]
!884 = metadata !{i32 786445, metadata !881, metadata !"d_index", metadata !65, i32 1194, i64 32, i64 32, i64 64, i32 0, metadata !41} ; [ DW_TAG_member ]
!885 = metadata !{i32 786478, i32 0, metadata !881, metadata !"ap_bit_ref", metadata !"ap_bit_ref", metadata !"", metadata !65, i32 1197, metadata !886, i1 false, i1 false, i32 0, i32 0, null, i32 256, i1 false, null, null, i32 0, metadata !37, i32 1197} ; [ DW_TAG_subprogram ]
!886 = metadata !{i32 786453, i32 0, metadata !"", i32 0, i32 0, i64 0, i64 0, i64 0, i32 0, null, metadata !887, i32 0, i32 0} ; [ DW_TAG_subroutine_type ]
!887 = metadata !{null, metadata !888, metadata !889}
!888 = metadata !{i32 786447, i32 0, metadata !"", i32 0, i32 0, i64 64, i64 64, i64 0, i32 64, metadata !881} ; [ DW_TAG_pointer_type ]
!889 = metadata !{i32 786448, null, null, null, i32 0, i64 0, i64 0, i64 0, i32 0, metadata !890} ; [ DW_TAG_reference_type ]
!890 = metadata !{i32 786470, null, metadata !"", null, i32 0, i64 0, i64 0, i64 0, i32 0, metadata !881} ; [ DW_TAG_const_type ]
!891 = metadata !{i32 786478, i32 0, metadata !881, metadata !"ap_bit_ref", metadata !"ap_bit_ref", metadata !"", metadata !65, i32 1200, metadata !892, i1 false, i1 false, i32 0, i32 0, null, i32 256, i1 false, null, null, i32 0, metadata !37, i32 1200} ; [ DW_TAG_subprogram ]
!892 = metadata !{i32 786453, i32 0, metadata !"", i32 0, i32 0, i64 0, i64 0, i64 0, i32 0, null, metadata !893, i32 0, i32 0} ; [ DW_TAG_subroutine_type ]
!893 = metadata !{null, metadata !888, metadata !894, metadata !41}
!894 = metadata !{i32 786447, null, metadata !"", null, i32 0, i64 64, i64 64, i64 0, i32 0, metadata !675} ; [ DW_TAG_pointer_type ]
!895 = metadata !{i32 786478, i32 0, metadata !881, metadata !"operator _Bool", metadata !"operator _Bool", metadata !"_ZNK10ap_bit_refILi17ELb1EEcvbEv", metadata !65, i32 1202, metadata !896, i1 false, i1 false, i32 0, i32 0, null, i32 256, i1 false, null, null, i32 0, metadata !37, i32 1202} ; [ DW_TAG_subprogram ]
!896 = metadata !{i32 786453, i32 0, metadata !"", i32 0, i32 0, i64 0, i64 0, i64 0, i32 0, null, metadata !897, i32 0, i32 0} ; [ DW_TAG_subroutine_type ]
!897 = metadata !{metadata !43, metadata !898}
!898 = metadata !{i32 786447, i32 0, metadata !"", i32 0, i32 0, i64 64, i64 64, i64 0, i32 64, metadata !890} ; [ DW_TAG_pointer_type ]
!899 = metadata !{i32 786478, i32 0, metadata !881, metadata !"to_bool", metadata !"to_bool", metadata !"_ZNK10ap_bit_refILi17ELb1EE7to_boolEv", metadata !65, i32 1203, metadata !896, i1 false, i1 false, i32 0, i32 0, null, i32 256, i1 false, null, null, i32 0, metadata !37, i32 1203} ; [ DW_TAG_subprogram ]
!900 = metadata !{i32 786478, i32 0, metadata !881, metadata !"operator=", metadata !"operator=", metadata !"_ZN10ap_bit_refILi17ELb1EEaSEy", metadata !65, i32 1205, metadata !901, i1 false, i1 false, i32 0, i32 0, null, i32 256, i1 false, null, null, i32 0, metadata !37, i32 1205} ; [ DW_TAG_subprogram ]
!901 = metadata !{i32 786453, i32 0, metadata !"", i32 0, i32 0, i64 0, i64 0, i64 0, i32 0, null, metadata !902, i32 0, i32 0} ; [ DW_TAG_subroutine_type ]
!902 = metadata !{metadata !903, metadata !888, metadata !136}
!903 = metadata !{i32 786448, null, null, null, i32 0, i64 0, i64 0, i64 0, i32 0, metadata !881} ; [ DW_TAG_reference_type ]
!904 = metadata !{i32 786478, i32 0, metadata !881, metadata !"operator=", metadata !"operator=", metadata !"_ZN10ap_bit_refILi17ELb1EEaSERKS0_", metadata !65, i32 1225, metadata !905, i1 false, i1 false, i32 0, i32 0, null, i32 256, i1 false, null, null, i32 0, metadata !37, i32 1225} ; [ DW_TAG_subprogram ]
!905 = metadata !{i32 786453, i32 0, metadata !"", i32 0, i32 0, i64 0, i64 0, i64 0, i32 0, null, metadata !906, i32 0, i32 0} ; [ DW_TAG_subroutine_type ]
!906 = metadata !{metadata !903, metadata !888, metadata !889}
!907 = metadata !{i32 786478, i32 0, metadata !881, metadata !"get", metadata !"get", metadata !"_ZNK10ap_bit_refILi17ELb1EE3getEv", metadata !65, i32 1333, metadata !896, i1 false, i1 false, i32 0, i32 0, null, i32 256, i1 false, null, null, i32 0, metadata !37, i32 1333} ; [ DW_TAG_subprogram ]
!908 = metadata !{i32 786478, i32 0, metadata !881, metadata !"get", metadata !"get", metadata !"_ZN10ap_bit_refILi17ELb1EE3getEv", metadata !65, i32 1337, metadata !909, i1 false, i1 false, i32 0, i32 0, null, i32 256, i1 false, null, null, i32 0, metadata !37, i32 1337} ; [ DW_TAG_subprogram ]
!909 = metadata !{i32 786453, i32 0, metadata !"", i32 0, i32 0, i64 0, i64 0, i64 0, i32 0, null, metadata !910, i32 0, i32 0} ; [ DW_TAG_subroutine_type ]
!910 = metadata !{metadata !43, metadata !888}
!911 = metadata !{i32 786478, i32 0, metadata !881, metadata !"operator~", metadata !"operator~", metadata !"_ZNK10ap_bit_refILi17ELb1EEcoEv", metadata !65, i32 1346, metadata !896, i1 false, i1 false, i32 0, i32 0, null, i32 256, i1 false, null, null, i32 0, metadata !37, i32 1346} ; [ DW_TAG_subprogram ]
!912 = metadata !{i32 786478, i32 0, metadata !881, metadata !"length", metadata !"length", metadata !"_ZNK10ap_bit_refILi17ELb1EE6lengthEv", metadata !65, i32 1351, metadata !913, i1 false, i1 false, i32 0, i32 0, null, i32 256, i1 false, null, null, i32 0, metadata !37, i32 1351} ; [ DW_TAG_subprogram ]
!913 = metadata !{i32 786453, i32 0, metadata !"", i32 0, i32 0, i64 0, i64 0, i64 0, i32 0, null, metadata !914, i32 0, i32 0} ; [ DW_TAG_subroutine_type ]
!914 = metadata !{metadata !41, metadata !898}
!915 = metadata !{metadata !916, metadata !42}
!916 = metadata !{i32 786480, null, metadata !"_AP_W", metadata !41, i64 17, null, i32 0, i32 0} ; [ DW_TAG_template_value_parameter ]
!917 = metadata !{i32 786478, i32 0, metadata !675, metadata !"operator[]", metadata !"operator[]", metadata !"_ZNK11ap_int_baseILi17ELb1ELb1EEixEi", metadata !65, i32 2054, metadata !841, i1 false, i1 false, i32 0, i32 0, null, i32 256, i1 false, null, null, i32 0, metadata !37, i32 2054} ; [ DW_TAG_subprogram ]
!918 = metadata !{i32 786478, i32 0, metadata !675, metadata !"bit", metadata !"bit", metadata !"_ZN11ap_int_baseILi17ELb1ELb1EE3bitEi", metadata !65, i32 2068, metadata !879, i1 false, i1 false, i32 0, i32 0, null, i32 256, i1 false, null, null, i32 0, metadata !37, i32 2068} ; [ DW_TAG_subprogram ]
!919 = metadata !{i32 786478, i32 0, metadata !675, metadata !"bit", metadata !"bit", metadata !"_ZNK11ap_int_baseILi17ELb1ELb1EE3bitEi", metadata !65, i32 2082, metadata !841, i1 false, i1 false, i32 0, i32 0, null, i32 256, i1 false, null, null, i32 0, metadata !37, i32 2082} ; [ DW_TAG_subprogram ]
!920 = metadata !{i32 786478, i32 0, metadata !675, metadata !"and_reduce", metadata !"and_reduce", metadata !"_ZN11ap_int_baseILi17ELb1ELb1EE10and_reduceEv", metadata !65, i32 2262, metadata !921, i1 false, i1 false, i32 0, i32 0, null, i32 256, i1 false, null, null, i32 0, metadata !37, i32 2262} ; [ DW_TAG_subprogram ]
!921 = metadata !{i32 786453, i32 0, metadata !"", i32 0, i32 0, i64 0, i64 0, i64 0, i32 0, null, metadata !922, i32 0, i32 0} ; [ DW_TAG_subroutine_type ]
!922 = metadata !{metadata !43, metadata !691}
!923 = metadata !{i32 786478, i32 0, metadata !675, metadata !"nand_reduce", metadata !"nand_reduce", metadata !"_ZN11ap_int_baseILi17ELb1ELb1EE11nand_reduceEv", metadata !65, i32 2265, metadata !921, i1 false, i1 false, i32 0, i32 0, null, i32 256, i1 false, null, null, i32 0, metadata !37, i32 2265} ; [ DW_TAG_subprogram ]
!924 = metadata !{i32 786478, i32 0, metadata !675, metadata !"or_reduce", metadata !"or_reduce", metadata !"_ZN11ap_int_baseILi17ELb1ELb1EE9or_reduceEv", metadata !65, i32 2268, metadata !921, i1 false, i1 false, i32 0, i32 0, null, i32 256, i1 false, null, null, i32 0, metadata !37, i32 2268} ; [ DW_TAG_subprogram ]
!925 = metadata !{i32 786478, i32 0, metadata !675, metadata !"nor_reduce", metadata !"nor_reduce", metadata !"_ZN11ap_int_baseILi17ELb1ELb1EE10nor_reduceEv", metadata !65, i32 2271, metadata !921, i1 false, i1 false, i32 0, i32 0, null, i32 256, i1 false, null, null, i32 0, metadata !37, i32 2271} ; [ DW_TAG_subprogram ]
!926 = metadata !{i32 786478, i32 0, metadata !675, metadata !"xor_reduce", metadata !"xor_reduce", metadata !"_ZN11ap_int_baseILi17ELb1ELb1EE10xor_reduceEv", metadata !65, i32 2274, metadata !921, i1 false, i1 false, i32 0, i32 0, null, i32 256, i1 false, null, null, i32 0, metadata !37, i32 2274} ; [ DW_TAG_subprogram ]
!927 = metadata !{i32 786478, i32 0, metadata !675, metadata !"xnor_reduce", metadata !"xnor_reduce", metadata !"_ZN11ap_int_baseILi17ELb1ELb1EE11xnor_reduceEv", metadata !65, i32 2277, metadata !921, i1 false, i1 false, i32 0, i32 0, null, i32 256, i1 false, null, null, i32 0, metadata !37, i32 2277} ; [ DW_TAG_subprogram ]
!928 = metadata !{i32 786478, i32 0, metadata !675, metadata !"and_reduce", metadata !"and_reduce", metadata !"_ZNK11ap_int_baseILi17ELb1ELb1EE10and_reduceEv", metadata !65, i32 2281, metadata !800, i1 false, i1 false, i32 0, i32 0, null, i32 256, i1 false, null, null, i32 0, metadata !37, i32 2281} ; [ DW_TAG_subprogram ]
!929 = metadata !{i32 786478, i32 0, metadata !675, metadata !"nand_reduce", metadata !"nand_reduce", metadata !"_ZNK11ap_int_baseILi17ELb1ELb1EE11nand_reduceEv", metadata !65, i32 2284, metadata !800, i1 false, i1 false, i32 0, i32 0, null, i32 256, i1 false, null, null, i32 0, metadata !37, i32 2284} ; [ DW_TAG_subprogram ]
!930 = metadata !{i32 786478, i32 0, metadata !675, metadata !"or_reduce", metadata !"or_reduce", metadata !"_ZNK11ap_int_baseILi17ELb1ELb1EE9or_reduceEv", metadata !65, i32 2287, metadata !800, i1 false, i1 false, i32 0, i32 0, null, i32 256, i1 false, null, null, i32 0, metadata !37, i32 2287} ; [ DW_TAG_subprogram ]
!931 = metadata !{i32 786478, i32 0, metadata !675, metadata !"nor_reduce", metadata !"nor_reduce", metadata !"_ZNK11ap_int_baseILi17ELb1ELb1EE10nor_reduceEv", metadata !65, i32 2290, metadata !800, i1 false, i1 false, i32 0, i32 0, null, i32 256, i1 false, null, null, i32 0, metadata !37, i32 2290} ; [ DW_TAG_subprogram ]
!932 = metadata !{i32 786478, i32 0, metadata !675, metadata !"xor_reduce", metadata !"xor_reduce", metadata !"_ZNK11ap_int_baseILi17ELb1ELb1EE10xor_reduceEv", metadata !65, i32 2293, metadata !800, i1 false, i1 false, i32 0, i32 0, null, i32 256, i1 false, null, null, i32 0, metadata !37, i32 2293} ; [ DW_TAG_subprogram ]
!933 = metadata !{i32 786478, i32 0, metadata !675, metadata !"xnor_reduce", metadata !"xnor_reduce", metadata !"_ZNK11ap_int_baseILi17ELb1ELb1EE11xnor_reduceEv", metadata !65, i32 2296, metadata !800, i1 false, i1 false, i32 0, i32 0, null, i32 256, i1 false, null, null, i32 0, metadata !37, i32 2296} ; [ DW_TAG_subprogram ]
!934 = metadata !{i32 786478, i32 0, metadata !675, metadata !"to_string", metadata !"to_string", metadata !"_ZNK11ap_int_baseILi17ELb1ELb1EE9to_stringEPci8BaseModeb", metadata !65, i32 2303, metadata !935, i1 false, i1 false, i32 0, i32 0, null, i32 256, i1 false, null, null, i32 0, metadata !37, i32 2303} ; [ DW_TAG_subprogram ]
!935 = metadata !{i32 786453, i32 0, metadata !"", i32 0, i32 0, i64 0, i64 0, i64 0, i32 0, null, metadata !936, i32 0, i32 0} ; [ DW_TAG_subroutine_type ]
!936 = metadata !{null, metadata !798, metadata !330, metadata !41, metadata !331, metadata !43}
!937 = metadata !{i32 786478, i32 0, metadata !675, metadata !"to_string", metadata !"to_string", metadata !"_ZNK11ap_int_baseILi17ELb1ELb1EE9to_stringE8BaseModeb", metadata !65, i32 2330, metadata !938, i1 false, i1 false, i32 0, i32 0, null, i32 256, i1 false, null, null, i32 0, metadata !37, i32 2330} ; [ DW_TAG_subprogram ]
!938 = metadata !{i32 786453, i32 0, metadata !"", i32 0, i32 0, i64 0, i64 0, i64 0, i32 0, null, metadata !939, i32 0, i32 0} ; [ DW_TAG_subroutine_type ]
!939 = metadata !{metadata !330, metadata !798, metadata !331, metadata !43}
